(dp0
S'METTS MARK'
p1
(dp2
S'to_messages'
p3
I807
sS'exercised_stock_options_fraction'
p4
S'NaN'
p5
sS'deferral_payments'
p6
S'NaN'
p7
sS'to_poi_fraction'
p8
F0.034482758620689655
sS'restricted_stock_fraction'
p9
F1.0
sS'expenses'
p10
I94299
sS'bonus_fraction'
p11
F0.5650638004119315
sS'loan_advances_fraction'
p12
g5
sS'other_fraction'
p13
F0.0016386850211946014
sS'poi'
p14
I00
sS'salary_fraction'
p15
F0.34448926237513267
sS'deferred_income'
p16
g7
sS'email_address'
p17
S'mark.metts@enron.com'
p18
sS'long_term_incentive'
p19
g7
sS'director_fees_fraction'
p20
g5
sS'restricted_stock_deferred'
p21
g7
sS'shared_receipt_with_poi'
p22
I702
sS'loan_advances'
p23
g7
sS'from_messages'
p24
I29
sS'other'
p25
I1740
sS'director_fees'
p26
g7
sS'deferral_payments_fraction'
p27
g5
sS'deferred_income_fraction'
p28
g5
sS'bonus'
p29
I600000
sS'from_poi_fraction'
p30
F0.04708798017348203
sS'total_stock_value'
p31
I585062
sS'from_poi_to_this_person'
p32
I38
sS'from_this_person_to_poi'
p33
I1
sS'restricted_stock'
p34
I585062
sS'salary'
p35
I365788
sS'restricted_stock_deferred_fraction'
p36
g5
sS'total_payments'
p37
I1061827
sS'expenses_fraction'
p38
F0.08880825219174121
sS'exercised_stock_options'
p39
g7
sS'long_term_incentive_fraction'
p40
g5
ssS'BAXTER JOHN C'
p41
(dp42
g3
g7
sS'exercised_stock_options_fraction'
p43
F0.6288601858299968
sg6
I1295738
sg8
g5
sS'restricted_stock_fraction'
p44
F0.3711398141700032
sg10
I11200
sS'bonus_fraction'
p45
F0.21297957898551792
sS'loan_advances_fraction'
p46
g5
sS'other_fraction'
p47
F0.4721585107615919
sg14
I00
sS'salary_fraction'
p48
F0.047406059588491506
sg16
I-1386055
sg17
g7
sg19
I1586055
sS'director_fees_fraction'
p49
g5
sg21
g7
sg22
g7
sg23
g7
sg24
g7
sg25
I2660303
sg26
g7
sS'deferral_payments_fraction'
p50
F0.2299714447629475
sS'deferred_income_fraction'
p51
F-0.24600117529231003
sg29
I1200000
sg30
g5
sg31
I10623258
sg32
g7
sg33
g7
sg34
I3942714
sg35
I267102
sS'restricted_stock_deferred_fraction'
p52
g5
sg37
I5634343
sS'expenses_fraction'
p53
F0.001987809403864834
sg39
I6680544
sS'long_term_incentive_fraction'
p54
F0.2814977717898964
ssS'ELLIOTT STEVEN'
p55
(dp56
g3
g7
sS'exercised_stock_options_fraction'
p57
F0.7322260877246963
sg6
g7
sg8
g5
sS'restricted_stock_fraction'
p58
F0.2677739122753036
sg10
I78552
sS'bonus_fraction'
p59
F1.6530877317274766
sS'loan_advances_fraction'
p60
g5
sS'other_fraction'
p61
F0.06121620025977093
sg14
I00
sS'salary_fraction'
p62
F0.8073727712835046
sg16
I-400729
sg17
S'steven.elliott@enron.com'
p63
sg19
g7
sS'director_fees_fraction'
p64
g5
sg21
g7
sg22
g7
sg23
g7
sg24
g7
sg25
I12961
sg26
g7
sS'deferral_payments_fraction'
p65
g5
sS'deferred_income_fraction'
p66
F-1.8926862675640572
sg29
I350000
sg30
g5
sg31
I6678735
sg32
g7
sg33
g7
sg34
I1788391
sg35
I170941
sS'restricted_stock_deferred_fraction'
p67
g5
sg37
I211725
sS'expenses_fraction'
p68
F0.371009564293305
sg39
I4890344
sS'long_term_incentive_fraction'
p69
g5
ssS'CORDES WILLIAM R'
p70
(dp71
g3
I764
sS'exercised_stock_options_fraction'
p72
F0.6278746080900803
sg6
g7
sg8
F0.0
sS'restricted_stock_fraction'
p73
F0.3721253919099197
sg10
g7
sS'bonus_fraction'
p74
g5
sS'loan_advances_fraction'
p75
g5
sS'other_fraction'
p76
g5
sg14
I00
sS'salary_fraction'
p77
g5
sg16
g7
sg17
S'bill.cordes@enron.com'
p78
sg19
g7
sS'director_fees_fraction'
p79
g5
sg21
g7
sg22
I58
sg23
g7
sg24
I12
sg25
g7
sg26
g7
sS'deferral_payments_fraction'
p80
g5
sS'deferred_income_fraction'
p81
g5
sg29
g7
sg30
F0.013089005235602094
sg31
I1038185
sg32
I10
sg33
I0
sg34
I386335
sg35
g7
sS'restricted_stock_deferred_fraction'
p82
g5
sg37
g7
sS'expenses_fraction'
p83
g5
sg39
I651850
sS'long_term_incentive_fraction'
p84
g5
ssS'HANNON KEVIN P'
p85
(dp86
g3
I1045
sS'exercised_stock_options_fraction'
p87
F0.8665224027607292
sg6
g7
sg8
F0.65625
sS'restricted_stock_fraction'
p88
F0.13347759723927077
sg10
I34039
sS'bonus_fraction'
p89
F5.196028848352166
sS'loan_advances_fraction'
p90
g5
sS'other_fraction'
p91
F0.039316618285864725
sg14
I01
sS'salary_fraction'
p92
F0.8427716310680957
sg16
I-3117011
sg17
S'kevin.hannon@enron.com'
p93
sg19
I1617011
sS'director_fees_fraction'
p94
g5
sg21
g7
sg22
I1035
sg23
g7
sg24
I32
sg25
I11350
sg26
g7
sS'deferral_payments_fraction'
p95
g5
sS'deferred_income_fraction'
p96
F-10.797386051087356
sg29
I1500000
sg30
F0.03062200956937799
sg31
I6391065
sg32
I32
sg33
I21
sg34
I853064
sg35
I243293
sS'restricted_stock_deferred_fraction'
p97
g5
sg37
I288682
sS'expenses_fraction'
p98
F0.11791175064603959
sg39
I5538001
sS'long_term_incentive_fraction'
p99
F5.60135720273519
ssS'MORDAUNT KRISTINA M'
p100
(dp101
g3
g7
sS'exercised_stock_options_fraction'
p102
g5
sg6
g7
sg8
g5
sS'restricted_stock_fraction'
p103
F1.0
sg10
I35018
sS'bonus_fraction'
p104
F0.5170861163173286
sS'loan_advances_fraction'
p105
g5
sS'other_fraction'
p106
F0.002244949261919233
sg14
I00
sS'salary_fraction'
p107
F0.42495409866321304
sg16
g7
sg17
S'kristina.mordaunt@enron.com'
p108
sg19
g7
sS'director_fees_fraction'
p109
g5
sg21
g7
sg22
g7
sg23
g7
sg24
g7
sg25
I1411
sg26
g7
sS'deferral_payments_fraction'
p110
g5
sS'deferred_income_fraction'
p111
g5
sg29
I325000
sg30
g5
sg31
I208510
sg32
g7
sg33
g7
sg34
I208510
sg35
I267093
sS'restricted_stock_deferred_fraction'
p112
g5
sg37
I628522
sS'expenses_fraction'
p113
F0.05571483575753912
sg39
g7
sS'long_term_incentive_fraction'
p114
g5
ssS'MEYER ROCKFORD G'
p115
(dp116
g3
I232
sS'exercised_stock_options_fraction'
p117
F0.5162704668925684
sg6
I1848227
sg8
F0.0
sS'restricted_stock_fraction'
p118
F0.4837295331074316
sg10
g7
sS'bonus_fraction'
p119
g5
sS'loan_advances_fraction'
p120
g5
sS'other_fraction'
p121
g5
sg14
I00
sS'salary_fraction'
p122
g5
sg16
g7
sg17
S'rockford.meyer@enron.com'
p123
sg19
g7
sS'director_fees_fraction'
p124
g5
sg21
g7
sg22
I22
sg23
g7
sg24
I28
sg25
g7
sg26
g7
sS'deferral_payments_fraction'
p125
F1.0
sS'deferred_income_fraction'
p126
g5
sg29
g7
sg30
F0.0
sg31
I955873
sg32
I0
sg33
I0
sg34
I462384
sg35
g7
sS'restricted_stock_deferred_fraction'
p127
g5
sg37
I1848227
sS'expenses_fraction'
p128
g5
sg39
I493489
sS'long_term_incentive_fraction'
p129
g5
ssS'MCMAHON JEFFREY'
p130
(dp131
g3
I2355
sS'exercised_stock_options_fraction'
p132
F0.6639508556067727
sg6
g7
sg8
F0.5416666666666666
sS'restricted_stock_fraction'
p133
F0.3360491443932273
sg10
I137108
sS'bonus_fraction'
p134
F0.6341817628350461
sS'loan_advances_fraction'
p135
g5
sS'other_fraction'
p136
F0.07252917297088057
sg14
I00
sS'salary_fraction'
p137
F0.09035821756873738
sg16
g7
sg17
S'jeffrey.mcmahon@enron.com'
p138
sg19
I694862
sS'director_fees_fraction'
p139
g5
sg21
g7
sg22
I2228
sg23
g7
sg24
I48
sg25
I297353
sg26
g7
sS'deferral_payments_fraction'
p140
g5
sS'deferred_income_fraction'
p141
g5
sg29
I2600000
sg30
F0.024628450106157114
sg31
I1662855
sg32
I58
sg33
I26
sg34
I558801
sg35
I370448
sS'restricted_stock_deferred_fraction'
p142
g5
sg37
I4099771
sS'expenses_fraction'
p143
F0.033442843514918275
sg39
I1104054
sS'long_term_incentive_fraction'
p144
F0.16948800311041762
ssS'HORTON STANLEY C'
p145
(dp146
g3
I2350
sS'exercised_stock_options_fraction'
p147
F0.7180407538025821
sg6
I3131860
sg8
F0.013979496738117428
sS'restricted_stock_fraction'
p148
F0.28195924619741786
sg10
g7
sS'bonus_fraction'
p149
g5
sS'loan_advances_fraction'
p150
g5
sS'other_fraction'
p151
g5
sg14
I00
sS'salary_fraction'
p152
g5
sg16
g7
sg17
S'stanley.horton@enron.com'
p153
sg19
g7
sS'director_fees_fraction'
p154
g5
sg21
g7
sg22
I1074
sg23
g7
sg24
I1073
sg25
g7
sg26
g7
sS'deferral_payments_fraction'
p155
F1.0
sS'deferred_income_fraction'
p156
g5
sg29
g7
sg30
F0.01872340425531915
sg31
I7256648
sg32
I44
sg33
I15
sg34
I2046079
sg35
g7
sS'restricted_stock_deferred_fraction'
p157
g5
sg37
I3131860
sS'expenses_fraction'
p158
g5
sg39
I5210569
sS'long_term_incentive_fraction'
p159
g5
ssS'PIPER GREGORY F'
p160
(dp161
g3
I1238
sS'exercised_stock_options_fraction'
p162
F1.0
sg6
I1130036
sg8
F0.21621621621621623
sS'restricted_stock_fraction'
p163
F0.46524895204989264
sg10
I43057
sS'bonus_fraction'
p164
F0.23019873632403695
sS'loan_advances_fraction'
p165
g5
sS'other_fraction'
p166
F0.00044773654215025184
sg14
I00
sS'salary_fraction'
p167
F0.11342524785210191
sg16
I-33333
sg17
S'greg.piper@enron.com'
p168
sg19
g7
sS'director_fees_fraction'
p169
g5
sg21
I-409554
sg22
I742
sg23
g7
sg24
I222
sg25
I778
sg26
g7
sS'deferral_payments_fraction'
p170
F0.6503321480016735
sS'deferred_income_fraction'
p171
F-0.019183036194722808
sg29
I400000
sg30
F0.049273021001615507
sg31
I880290
sg32
I61
sg33
I48
sg34
I409554
sg35
I197091
sS'restricted_stock_deferred_fraction'
p172
F-0.46524895204989264
sg37
I1737629
sS'expenses_fraction'
p173
F0.024779167474760146
sg39
I880290
sS'long_term_incentive_fraction'
p174
g5
ssS'HUMPHREY GENE E'
p175
(dp176
g3
I128
sS'exercised_stock_options_fraction'
p177
F1.0
sg6
I2964506
sg8
F1.0
sS'restricted_stock_fraction'
p178
g5
sg10
I4994
sS'bonus_fraction'
p179
g5
sS'loan_advances_fraction'
p180
g5
sS'other_fraction'
p181
g5
sg14
I00
sS'salary_fraction'
p182
F0.04216598542556925
sg16
g7
sg17
S'gene.humphrey@enron.com'
p183
sg19
g7
sS'director_fees_fraction'
p184
g5
sg21
g7
sg22
I119
sg23
g7
sg24
I17
sg25
g7
sg26
g7
sS'deferral_payments_fraction'
p185
F0.9562231632294956
sS'deferred_income_fraction'
p186
g5
sg29
g7
sg30
F0.078125
sg31
I2282768
sg32
I10
sg33
I17
sg34
g7
sg35
I130724
sS'restricted_stock_deferred_fraction'
p187
g5
sg37
I3100224
sS'expenses_fraction'
p188
F0.0016108513449350757
sg39
I2282768
sS'long_term_incentive_fraction'
p189
g5
ssS'UMANOFF ADAM S'
p190
(dp191
g3
I111
sS'exercised_stock_options_fraction'
p192
g5
sg6
g7
sg8
F0.0
sS'restricted_stock_fraction'
p193
g5
sg10
I53122
sS'bonus_fraction'
p194
F0.6977242027809893
sS'loan_advances_fraction'
p195
g5
sS'other_fraction'
p196
g5
sg14
I00
sS'salary_fraction'
p197
F0.2552843485976075
sg16
g7
sg17
S'adam.umanoff@enron.com'
p198
sg19
g7
sS'director_fees_fraction'
p199
g5
sg21
g7
sg22
I41
sg23
g7
sg24
I18
sg25
g7
sg26
g7
sS'deferral_payments_fraction'
p200
g5
sS'deferred_income_fraction'
p201
g5
sg29
I788750
sg30
F0.10810810810810811
sg31
g7
sg32
I12
sg33
I0
sg34
g7
sg35
I288589
sS'restricted_stock_deferred_fraction'
p202
g5
sg37
I1130461
sS'expenses_fraction'
p203
F0.04699144862140313
sg39
g7
sS'long_term_incentive_fraction'
p204
g5
ssS'BLACHMAN JEREMY M'
p205
(dp206
g3
I2475
sS'exercised_stock_options_fraction'
p207
F0.8019173178925221
sg6
g7
sg8
F0.14285714285714285
sS'restricted_stock_fraction'
p208
F0.19808268210747793
sg10
I84208
sS'bonus_fraction'
p209
F0.4218707735372872
sS'loan_advances_fraction'
p210
g5
sS'other_fraction'
p211
F0.0001349986475319319
sg14
I00
sS'salary_fraction'
p212
F0.12335799209364538
sg16
g7
sg17
S'jeremy.blachman@enron.com'
p213
sg19
I831809
sS'director_fees_fraction'
p214
g5
sg21
g7
sg22
I2326
sg23
g7
sg24
I14
sg25
I272
sg26
g7
sS'deferral_payments_fraction'
p215
g5
sS'deferred_income_fraction'
p216
g5
sg29
I850000
sg30
F0.010101010101010102
sg31
I954354
sg32
I25
sg33
I2
sg34
I189041
sg35
I248546
sS'restricted_stock_deferred_fraction'
p217
g5
sg37
I2014835
sS'expenses_fraction'
p218
F0.04179399305650339
sg39
I765313
sS'long_term_incentive_fraction'
p219
F0.4128422426650321
ssS'SUNDE MARTIN'
p220
(dp221
g3
I2647
sS'exercised_stock_options_fraction'
p222
g5
sg6
g7
sg8
F0.34210526315789475
sS'restricted_stock_fraction'
p223
F1.0
sg10
g7
sS'bonus_fraction'
p224
F0.4530571324460749
sS'loan_advances_fraction'
p225
g5
sS'other_fraction'
p226
F0.07192087810238962
sg14
I00
sS'salary_fraction'
p227
F0.16665124115001434
sg16
g7
sg17
S'marty.sunde@enron.com'
p228
sg19
I476451
sS'director_fees_fraction'
p229
g5
sg21
g7
sg22
I2565
sg23
g7
sg24
I38
sg25
I111122
sg26
g7
sS'deferral_payments_fraction'
p230
g5
sS'deferred_income_fraction'
p231
g5
sg29
I700000
sg30
F0.013978088401964487
sg31
I698920
sg32
I37
sg33
I13
sg34
I698920
sg35
I257486
sS'restricted_stock_deferred_fraction'
p232
g5
sg37
I1545059
sS'expenses_fraction'
p233
g5
sg39
g7
sS'long_term_incentive_fraction'
p234
F0.30837074830152117
ssS'GIBBS DANA R'
p235
(dp236
g3
I169
sS'exercised_stock_options_fraction'
p237
F1.0
sg6
I504610
sg8
F0.0
sS'restricted_stock_fraction'
p238
g5
sg10
g7
sS'bonus_fraction'
p239
g5
sS'loan_advances_fraction'
p240
g5
sS'other_fraction'
p241
g5
sg14
I00
sS'salary_fraction'
p242
g5
sg16
g7
sg17
S'dana.gibbs@enron.com'
p243
sg19
I461912
sS'director_fees_fraction'
p244
g5
sg21
g7
sg22
I23
sg23
g7
sg24
I12
sg25
g7
sg26
g7
sS'deferral_payments_fraction'
p245
F0.5220884780687869
sS'deferred_income_fraction'
p246
g5
sg29
g7
sg30
F0.0
sg31
I2218275
sg32
I0
sg33
I0
sg34
g7
sg35
g7
sS'restricted_stock_deferred_fraction'
p247
g5
sg37
I966522
sS'expenses_fraction'
p248
g5
sg39
I2218275
sS'long_term_incentive_fraction'
p249
F0.47791152193121317
ssS'LOWRY CHARLES P'
p250
(dp251
g3
g7
sS'exercised_stock_options_fraction'
p252
F1.0
sg6
g7
sg8
g5
sS'restricted_stock_fraction'
p253
F0.41290686584006125
sg10
g7
sS'bonus_fraction'
p254
g5
sS'loan_advances_fraction'
p255
g5
sS'other_fraction'
p256
g5
sg14
I00
sS'salary_fraction'
p257
g5
sg16
g7
sg17
g7
sg19
g7
sS'director_fees_fraction'
p258
g5
sg21
I-153686
sg22
g7
sg23
g7
sg24
g7
sg25
g7
sg26
g7
sS'deferral_payments_fraction'
p259
g5
sS'deferred_income_fraction'
p260
g5
sg29
g7
sg30
g5
sg31
I372205
sg32
g7
sg33
g7
sg34
I153686
sg35
g7
sS'restricted_stock_deferred_fraction'
p261
F-0.41290686584006125
sg37
g7
sS'expenses_fraction'
p262
g5
sg39
I372205
sS'long_term_incentive_fraction'
p263
g5
ssS'COLWELL WESLEY'
p264
(dp265
g3
I1758
sS'exercised_stock_options_fraction'
p266
g5
sg6
I27610
sg8
F0.275
sS'restricted_stock_fraction'
p267
F1.0
sg10
I16514
sS'bonus_fraction'
p268
F0.8051832328643588
sS'loan_advances_fraction'
p269
g5
sS'other_fraction'
p270
F0.06826611842634989
sg14
I01
sS'salary_fraction'
p271
F0.19360765031428986
sg16
I-144062
sg17
S'wes.colwell@enron.com'
p272
sg19
g7
sS'director_fees_fraction'
p273
g5
sg21
g7
sg22
I1132
sg23
g7
sg24
I40
sg25
I101740
sg26
g7
sS'deferral_payments_fraction'
p274
F0.01852592421615412
sS'deferred_income_fraction'
p275
F-0.09666358907742105
sg29
I1200000
sg30
F0.13651877133105803
sg31
I698242
sg32
I240
sg33
I11
sg34
I698242
sg35
I288542
sS'restricted_stock_deferred_fraction'
p276
g5
sg37
I1490344
sS'expenses_fraction'
p277
F0.011080663256268351
sg39
g7
sS'long_term_incentive_fraction'
p278
g5
ssS'MULLER MARK S'
p279
(dp280
g3
I136
sS'exercised_stock_options_fraction'
p281
F0.7455422176549636
sg6
I842924
sg8
F0.0
sS'restricted_stock_fraction'
p282
F0.2544577823450363
sg10
g7
sS'bonus_fraction'
p283
F0.3435277804670104
sS'loan_advances_fraction'
p284
g5
sS'other_fraction'
p285
F0.0002957461891838717
sg14
I00
sS'salary_fraction'
p286
F0.07859103642331366
sg16
I-719000
sg17
S's..muller@enron.com'
p287
sg19
I1725545
sS'director_fees_fraction'
p288
g5
sg21
g7
sg22
I114
sg23
g7
sg24
I16
sg25
I947
sg26
g7
sS'deferral_payments_fraction'
p289
F0.2632434643839766
sS'deferred_income_fraction'
p290
F-0.22454224923252772
sg29
I1100000
sg30
F0.08823529411764706
sg31
I1416848
sg32
I12
sg33
I0
sg34
I360528
sg35
I251654
sS'restricted_stock_deferred_fraction'
p291
g5
sg37
I3202070
sS'expenses_fraction'
p292
g5
sg39
I1056320
sS'long_term_incentive_fraction'
p293
F0.5388842217690432
ssS'JACKSON CHARLENE R'
p294
(dp295
g3
I258
sS'exercised_stock_options_fraction'
p296
F0.25500079230021977
sg6
g7
sg8
F0.3392857142857143
sS'restricted_stock_fraction'
p297
F0.7449992076997802
sg10
I10181
sS'bonus_fraction'
p298
F0.453577273238578
sS'loan_advances_fraction'
p299
g5
sS'other_fraction'
p300
F0.00441784264134375
sg14
I00
sS'salary_fraction'
p301
F0.5235334032447104
sg16
g7
sg17
S'charlene.jackson@enron.com'
p302
sg19
g7
sS'director_fees_fraction'
p303
g5
sg21
g7
sg22
I117
sg23
g7
sg24
I56
sg25
I2435
sg26
g7
sS'deferral_payments_fraction'
p304
g5
sS'deferred_income_fraction'
p305
g5
sg29
I250000
sg30
F0.09689922480620156
sg31
I725735
sg32
I25
sg33
I19
sg34
I540672
sg35
I288558
sS'restricted_stock_deferred_fraction'
p306
g5
sg37
I551174
sS'expenses_fraction'
p307
F0.01847148087536785
sg39
I185063
sS'long_term_incentive_fraction'
p308
g5
ssS'WESTFAHL RICHARD K'
p309
(dp310
g3
g7
sS'exercised_stock_options_fraction'
p311
g5
sg6
g7
sg8
g5
sS'restricted_stock_fraction'
p312
F1.0
sg10
I51870
sS'bonus_fraction'
p313
g5
sS'loan_advances_fraction'
p314
g5
sS'other_fraction'
p315
F0.5263240764431498
sg14
I00
sS'salary_fraction'
p316
F0.08363872542266133
sg16
I-10800
sg17
S'dick.westfahl@enron.com'
p317
sg19
I256191
sS'director_fees_fraction'
p318
g5
sg21
g7
sg22
g7
sg23
g7
sg24
g7
sg25
I401130
sg26
g7
sS'deferral_payments_fraction'
p319
g5
sS'deferred_income_fraction'
p320
F-0.014170717786218976
sg29
g7
sg30
g5
sg31
I384930
sg32
g7
sg33
g7
sg34
I384930
sg35
I63744
sS'restricted_stock_deferred_fraction'
p321
g5
sg37
I762135
sS'expenses_fraction'
p322
F0.06805880847881281
sg39
g7
sS'long_term_incentive_fraction'
p323
F0.336149107441595
ssS'WALTERS GARETH W'
p324
(dp325
g3
g7
sS'exercised_stock_options_fraction'
p326
F1.0
sg6
I53625
sg8
g5
sS'restricted_stock_fraction'
p327
g5
sg10
I33785
sS'bonus_fraction'
p328
g5
sS'loan_advances_fraction'
p329
g5
sS'other_fraction'
p330
g5
sg14
I00
sS'salary_fraction'
p331
g5
sg16
g7
sg17
g7
sg19
g7
sS'director_fees_fraction'
p332
g5
sg21
g7
sg22
g7
sg23
g7
sg24
g7
sg25
g7
sg26
g7
sS'deferral_payments_fraction'
p333
F0.6134881592495138
sS'deferred_income_fraction'
p334
g5
sg29
g7
sg30
g5
sg31
I1030329
sg32
g7
sg33
g7
sg34
g7
sg35
g7
sS'restricted_stock_deferred_fraction'
p335
g5
sg37
I87410
sS'expenses_fraction'
p336
F0.3865118407504862
sg39
I1030329
sS'long_term_incentive_fraction'
p337
g5
ssS'WALLS JR ROBERT H'
p338
(dp339
g3
I671
sS'exercised_stock_options_fraction'
p340
F0.7368276335790643
sg6
g7
sg8
F0.0
sS'restricted_stock_fraction'
p341
F0.2631723664209356
sg10
I50936
sS'bonus_fraction'
p342
F0.47254250102847484
sS'loan_advances_fraction'
p343
g5
sS'other_fraction'
p344
F1.1118647083022938e-06
sg14
I00
sS'salary_fraction'
p345
F0.1985184402761872
sg16
g7
sg17
S'rob.walls@enron.com'
p346
sg19
I540751
sS'director_fees_fraction'
p347
g5
sg21
g7
sg22
I215
sg23
g7
sg24
I146
sg25
I2
sg26
g7
sS'deferral_payments_fraction'
p348
g5
sS'deferred_income_fraction'
p349
g5
sg29
I850000
sg30
F0.02533532041728763
sg31
I5898997
sg32
I17
sg33
I0
sg34
I1552453
sg35
I357091
sS'restricted_stock_deferred_fraction'
p350
g5
sg37
I1798780
sS'expenses_fraction'
p351
F0.028316970391042817
sg39
I4346544
sS'long_term_incentive_fraction'
p352
F0.30062097643958685
ssS'KITCHEN LOUISE'
p353
(dp354
g3
I8305
sS'exercised_stock_options_fraction'
p355
F0.14811849918577044
sg6
g7
sg8
F0.11226851851851852
sS'restricted_stock_fraction'
p356
F0.8518815008142295
sg10
I5774
sS'bonus_fraction'
p357
F0.8930780973748977
sS'loan_advances_fraction'
p358
g5
sS'other_fraction'
p359
F0.02705882590191525
sg14
I00
sS'salary_fraction'
p360
F0.07819964674439903
sg16
g7
sg17
S'louise.kitchen@enron.com'
p361
sg19
g7
sS'director_fees_fraction'
p362
g5
sg21
g7
sg22
I3669
sg23
g7
sg24
I1728
sg25
I93925
sg26
g7
sS'deferral_payments_fraction'
p363
g5
sS'deferred_income_fraction'
p364
g5
sg29
I3100000
sg30
F0.030222757375075255
sg31
I547143
sg32
I251
sg33
I194
sg34
I466101
sg35
I271442
sS'restricted_stock_deferred_fraction'
p365
g5
sg37
I3471141
sS'expenses_fraction'
p366
F0.0016634299787879547
sg39
I81042
sS'long_term_incentive_fraction'
p367
g5
ssS'CHAN RONNIE'
p368
(dp369
g3
g7
sS'exercised_stock_options_fraction'
p370
g5
sg6
g7
sg8
g5
sS'restricted_stock_fraction'
p371
g5
sg10
g7
sS'bonus_fraction'
p372
g5
sS'loan_advances_fraction'
p373
g5
sS'other_fraction'
p374
g5
sg14
I00
sS'salary_fraction'
p375
g5
sg16
I-98784
sg17
g7
sg19
g7
sS'director_fees_fraction'
p376
g5
sg21
I-32460
sg22
g7
sg23
g7
sg24
g7
sg25
g7
sg26
I98784
sS'deferral_payments_fraction'
p377
g5
sS'deferred_income_fraction'
p378
g5
sg29
g7
sg30
g5
sg31
g7
sg32
g7
sg33
g7
sg34
I32460
sg35
g7
sS'restricted_stock_deferred_fraction'
p379
g5
sg37
g7
sS'expenses_fraction'
p380
g5
sg39
g7
sS'long_term_incentive_fraction'
p381
g5
ssS'BELFER ROBERT'
p382
(dp383
g3
g7
sS'exercised_stock_options_fraction'
p384
F-0.07450162157258522
sg6
I-102500
sg8
g5
sS'restricted_stock_fraction'
p385
g5
sg10
g7
sS'bonus_fraction'
p386
g5
sS'loan_advances_fraction'
p387
g5
sS'other_fraction'
p388
g5
sg14
I00
sS'salary_fraction'
p389
g5
sg16
g7
sg17
g7
sg19
g7
sS'director_fees_fraction'
p390
F0.03204878048780488
sg21
I44093
sg22
g7
sg23
g7
sg24
g7
sg25
g7
sg26
I3285
sS'deferral_payments_fraction'
p391
F-1.0
sS'deferred_income_fraction'
p392
g5
sg29
g7
sg30
g5
sg31
I-44093
sg32
g7
sg33
g7
sg34
g7
sg35
g7
sS'restricted_stock_deferred_fraction'
p393
F-1.0
sg37
I102500
sS'expenses_fraction'
p394
g5
sg39
I3285
sS'long_term_incentive_fraction'
p395
g5
ssS'SHANKMAN JEFFREY A'
p396
(dp397
g3
I3221
sS'exercised_stock_options_fraction'
p398
F0.6958849633331483
sg6
g7
sg8
F0.030958597538232
sS'restricted_stock_fraction'
p399
F0.3041150366668517
sg10
I178979
sS'bonus_fraction'
p400
F0.6581757605714545
sS'loan_advances_fraction'
p401
g5
sS'other_fraction'
p402
F0.0003919436654203012
sg14
I00
sS'salary_fraction'
p403
F0.10007891527369252
sg16
g7
sg17
S'jeffrey.shankman@enron.com'
p404
sg19
I554422
sS'director_fees_fraction'
p405
g5
sg21
g7
sg22
I1730
sg23
g7
sg24
I2681
sg25
I1191
sg26
g7
sS'deferral_payments_fraction'
p406
g5
sS'deferred_income_fraction'
p407
g5
sg29
I2000000
sg30
F0.029183483390251473
sg31
I2072035
sg32
I94
sg33
I83
sg34
I630137
sg35
I304110
sS'restricted_stock_deferred_fraction'
p408
g5
sg37
I3038702
sS'expenses_fraction'
p409
F0.05889981972565918
sg39
I1441898
sS'long_term_incentive_fraction'
p410
F0.18245356076377348
ssS'WODRASKA JOHN'
p411
(dp412
g3
g7
sS'exercised_stock_options_fraction'
p413
g5
sg6
g7
sg8
g5
sS'restricted_stock_fraction'
p414
g5
sg10
g7
sS'bonus_fraction'
p415
g5
sS'loan_advances_fraction'
p416
g5
sS'other_fraction'
p417
F1.0
sg14
I00
sS'salary_fraction'
p418
g5
sg16
g7
sg17
S'john.wodraska@enron.com'
p419
sg19
g7
sS'director_fees_fraction'
p420
g5
sg21
g7
sg22
g7
sg23
g7
sg24
g7
sg25
I189583
sg26
g7
sS'deferral_payments_fraction'
p421
g5
sS'deferred_income_fraction'
p422
g5
sg29
g7
sg30
g5
sg31
g7
sg32
g7
sg33
g7
sg34
g7
sg35
g7
sS'restricted_stock_deferred_fraction'
p423
g5
sg37
I189583
sS'expenses_fraction'
p424
g5
sg39
g7
sS'long_term_incentive_fraction'
p425
g5
ssS'BERGSIEKER RICHARD P'
p426
(dp427
g3
I383
sS'exercised_stock_options_fraction'
p428
g5
sg6
g7
sg8
F0.0
sS'restricted_stock_fraction'
p429
F1.0
sg10
I59175
sS'bonus_fraction'
p430
F0.4039751151329078
sS'loan_advances_fraction'
p431
g5
sS'other_fraction'
p432
F0.6905001211925346
sg14
I00
sS'salary_fraction'
p433
F0.3036632463440252
sg16
I-485813
sg17
S'rick.bergsieker@enron.com'
p434
sg19
I180250
sS'director_fees_fraction'
p435
g5
sg21
g7
sg22
I233
sg23
g7
sg24
I59
sg25
I427316
sg26
g7
sS'deferral_payments_fraction'
p436
g5
sS'deferred_income_fraction'
p437
F-0.7850254504322534
sg29
I250000
sg30
F0.010443864229765013
sg31
I659249
sg32
I4
sg33
I0
sg34
I659249
sg35
I187922
sS'restricted_stock_deferred_fraction'
p438
g5
sg37
I618850
sS'expenses_fraction'
p439
F0.09562090975195928
sg39
g7
sS'long_term_incentive_fraction'
p440
F0.29126605801082656
ssS'URQUHART JOHN A'
p441
(dp442
g3
g7
sS'exercised_stock_options_fraction'
p443
g5
sg6
g7
sg8
g5
sS'restricted_stock_fraction'
p444
g5
sg10
I228656
sS'bonus_fraction'
p445
g5
sS'loan_advances_fraction'
p446
g5
sS'other_fraction'
p447
g5
sg14
I00
sS'salary_fraction'
p448
g5
sg16
I-36666
sg17
g7
sg19
g7
sS'director_fees_fraction'
p449
F0.16035441886501994
sg21
g7
sg22
g7
sg23
g7
sg24
g7
sg25
g7
sg26
I36666
sS'deferral_payments_fraction'
p450
g5
sS'deferred_income_fraction'
p451
F-0.16035441886501994
sg29
g7
sg30
g5
sg31
g7
sg32
g7
sg33
g7
sg34
g7
sg35
g7
sS'restricted_stock_deferred_fraction'
p452
g5
sg37
I228656
sS'expenses_fraction'
p453
F1.0
sg39
g7
sS'long_term_incentive_fraction'
p454
g5
ssS'BIBI PHILIPPE A'
p455
(dp456
g3
I1607
sS'exercised_stock_options_fraction'
p457
F0.7949459165122768
sg6
g7
sg8
F0.2
sS'restricted_stock_fraction'
p458
F0.20505408348772328
sg10
I38559
sS'bonus_fraction'
p459
F0.4883783056496091
sS'loan_advances_fraction'
p460
g5
sS'other_fraction'
p461
F0.2078967841753708
sg14
I00
sS'salary_fraction'
p462
F0.10432981554439774
sg16
g7
sg17
S'philippe.bibi@enron.com'
p463
sg19
I369721
sS'director_fees_fraction'
p464
g5
sg21
g7
sg22
I1336
sg23
g7
sg24
I40
sg25
I425688
sg26
g7
sS'deferral_payments_fraction'
p465
g5
sS'deferred_income_fraction'
p466
g5
sg29
I1000000
sg30
F0.01431238332296204
sg31
I1843816
sg32
I23
sg33
I8
sg34
I378082
sg35
I213625
sS'restricted_stock_deferred_fraction'
p467
g5
sg37
I2047593
sS'expenses_fraction'
p468
F0.018831379087543277
sg39
I1465734
sS'long_term_incentive_fraction'
p469
F0.18056371554307912
ssS'RIEKER PAULA H'
p470
(dp471
g3
I1328
sS'exercised_stock_options_fraction'
p472
F0.8521804566918219
sg6
I214678
sg8
F0.5853658536585366
sS'restricted_stock_fraction'
p473
F0.14781954330817812
sg10
I33271
sS'bonus_fraction'
p474
F0.6368847238649804
sS'loan_advances_fraction'
p475
g5
sS'other_fraction'
p476
F0.0017741788736238742
sg14
I01
sS'salary_fraction'
p477
F0.22673187153125285
sg16
I-100000
sg17
S'paula.rieker@enron.com'
p478
sg19
g7
sS'director_fees_fraction'
p479
g5
sg21
g7
sg22
I1258
sg23
g7
sg24
I82
sg25
I1950
sg26
g7
sS'deferral_payments_fraction'
p480
F0.19532162678555182
sS'deferred_income_fraction'
p481
F-0.09098353198071149
sg29
I700000
sg30
F0.02635542168674699
sg31
I1918887
sg32
I35
sg33
I48
sg34
I283649
sg35
I249201
sS'restricted_stock_deferred_fraction'
p482
g5
sg37
I1099100
sS'expenses_fraction'
p483
F0.03027113092530252
sg39
I1635238
sS'long_term_incentive_fraction'
p484
g5
ssS'WHALEY DAVID A'
p485
(dp486
g3
g7
sS'exercised_stock_options_fraction'
p487
F1.0
sg6
g7
sg8
g5
sS'restricted_stock_fraction'
p488
g5
sg10
g7
sS'bonus_fraction'
p489
g5
sS'loan_advances_fraction'
p490
g5
sS'other_fraction'
p491
g5
sg14
I00
sS'salary_fraction'
p492
g5
sg16
g7
sg17
g7
sg19
g7
sS'director_fees_fraction'
p493
g5
sg21
g7
sg22
g7
sg23
g7
sg24
g7
sg25
g7
sg26
g7
sS'deferral_payments_fraction'
p494
g5
sS'deferred_income_fraction'
p495
g5
sg29
g7
sg30
g5
sg31
I98718
sg32
g7
sg33
g7
sg34
g7
sg35
g7
sS'restricted_stock_deferred_fraction'
p496
g5
sg37
g7
sS'expenses_fraction'
p497
g5
sg39
I98718
sS'long_term_incentive_fraction'
p498
g5
ssS'BECK SALLY W'
p499
(dp500
g3
I7315
sS'exercised_stock_options_fraction'
p501
g5
sg6
g7
sg8
F0.08887865530739121
sS'restricted_stock_fraction'
p502
F1.0
sg10
I37172
sS'bonus_fraction'
p503
F0.7223435300721931
sS'loan_advances_fraction'
p504
g5
sS'other_fraction'
p505
F0.0005840663400298018
sg14
I00
sS'salary_fraction'
p506
F0.23871389830228631
sg16
g7
sg17
S'sally.beck@enron.com'
p507
sg19
g7
sS'director_fees_fraction'
p508
g5
sg21
g7
sg22
I2639
sg23
g7
sg24
I4343
sg25
I566
sg26
g7
sS'deferral_payments_fraction'
p509
g5
sS'deferred_income_fraction'
p510
g5
sg29
I700000
sg30
F0.01968557758031442
sg31
I126027
sg32
I144
sg33
I386
sg34
I126027
sg35
I231330
sS'restricted_stock_deferred_fraction'
p511
g5
sg37
I969068
sS'expenses_fraction'
p512
F0.0383585052854908
sg39
g7
sS'long_term_incentive_fraction'
p513
g5
ssS'HAUG DAVID L'
p514
(dp515
g3
I573
sS'exercised_stock_options_fraction'
p516
g5
sg6
g7
sg8
F0.3684210526315789
sS'restricted_stock_fraction'
p517
F1.0
sg10
I475
sS'bonus_fraction'
p518
g5
sS'loan_advances_fraction'
p519
g5
sS'other_fraction'
p520
g5
sg14
I00
sS'salary_fraction'
p521
g5
sg16
g7
sg17
S'david.haug@enron.com'
p522
sg19
g7
sS'director_fees_fraction'
p523
g5
sg21
g7
sg22
I471
sg23
g7
sg24
I19
sg25
g7
sg26
g7
sS'deferral_payments_fraction'
p524
g5
sS'deferred_income_fraction'
p525
g5
sg29
g7
sg30
F0.006980802792321117
sg31
I2217299
sg32
I4
sg33
I7
sg34
I2217299
sg35
g7
sS'restricted_stock_deferred_fraction'
p526
g5
sg37
I475
sS'expenses_fraction'
p527
F1.0
sg39
g7
sS'long_term_incentive_fraction'
p528
g5
ssS'ECHOLS JOHN B'
p529
(dp530
g3
g7
sS'exercised_stock_options_fraction'
p531
F0.5961081966140735
sg6
g7
sg8
g5
sS'restricted_stock_fraction'
p532
F0.40389180338592645
sg10
I21530
sS'bonus_fraction'
p533
F0.07428526432925606
sS'loan_advances_fraction'
p534
g5
sS'other_fraction'
p535
F0.019973450446528724
sg14
I00
sS'salary_fraction'
p536
F0.06769058998842635
sg16
g7
sg17
S'john.echols@enron.com'
p537
sg19
I2234774
sS'director_fees_fraction'
p538
g5
sg21
g7
sg22
g7
sg23
g7
sg24
g7
sg25
I53775
sg26
g7
sS'deferral_payments_fraction'
p539
g5
sS'deferred_income_fraction'
p540
g5
sg29
I200000
sg30
g5
sg31
I1008941
sg32
g7
sg33
g7
sg34
I407503
sg35
I182245
sS'restricted_stock_deferred_fraction'
p541
g5
sg37
I2692324
sS'expenses_fraction'
p542
F0.007996808705044415
sg39
I601438
sS'long_term_incentive_fraction'
p543
F0.8300538865307444
ssS'MENDELSOHN JOHN'
p544
(dp545
g3
g7
sS'exercised_stock_options_fraction'
p546
g5
sg6
g7
sg8
g5
sS'restricted_stock_fraction'
p547
g5
sg10
I148
sS'bonus_fraction'
p548
g5
sS'loan_advances_fraction'
p549
g5
sS'other_fraction'
p550
g5
sg14
I00
sS'salary_fraction'
p551
g5
sg16
I-103750
sg17
g7
sg19
g7
sS'director_fees_fraction'
p552
F701.0135135135135
sg21
g7
sg22
g7
sg23
g7
sg24
g7
sg25
g7
sg26
I103750
sS'deferral_payments_fraction'
p553
g5
sS'deferred_income_fraction'
p554
F-701.0135135135135
sg29
g7
sg30
g5
sg31
g7
sg32
g7
sg33
g7
sg34
g7
sg35
g7
sS'restricted_stock_deferred_fraction'
p555
g5
sg37
I148
sS'expenses_fraction'
p556
F1.0
sg39
g7
sS'long_term_incentive_fraction'
p557
g5
ssS'HICKERSON GARY J'
p558
(dp559
g3
I1320
sS'exercised_stock_options_fraction'
p560
g5
sg6
g7
sg8
F0.037037037037037035
sS'restricted_stock_fraction'
p561
F1.0
sg10
I98849
sS'bonus_fraction'
p562
F0.8166025873812804
sS'loan_advances_fraction'
p563
g5
sS'other_fraction'
p564
F0.0009299662406883287
sg14
I00
sS'salary_fraction'
p565
F0.10173331104488624
sg16
g7
sg17
S'gary.hickerson@enron.com'
p566
sg19
I69223
sS'director_fees_fraction'
p567
g5
sg21
g7
sg22
I900
sg23
g7
sg24
I27
sg25
I1936
sg26
g7
sS'deferral_payments_fraction'
p568
g5
sS'deferred_income_fraction'
p569
g5
sg29
I1700000
sg30
F0.030303030303030304
sg31
I441096
sg32
I40
sg33
I1
sg34
I441096
sg35
I211788
sS'restricted_stock_deferred_fraction'
p570
g5
sg37
I2081796
sS'expenses_fraction'
p571
F0.04748255832944246
sg39
g7
sS'long_term_incentive_fraction'
p572
F0.03325157700370257
ssS'CLINE KENNETH W'
p573
(dp574
g3
g7
sS'exercised_stock_options_fraction'
p575
g5
sg6
g7
sg8
g5
sS'restricted_stock_fraction'
p576
F3.4935256809379585
sg10
g7
sS'bonus_fraction'
p577
g5
sS'loan_advances_fraction'
p578
g5
sS'other_fraction'
p579
g5
sg14
I00
sS'salary_fraction'
p580
g5
sg16
g7
sg17
g7
sg19
g7
sS'director_fees_fraction'
p581
g5
sg21
I-472568
sg22
g7
sg23
g7
sg24
g7
sg25
g7
sg26
g7
sS'deferral_payments_fraction'
p582
g5
sS'deferred_income_fraction'
p583
g5
sg29
g7
sg30
g5
sg31
I189518
sg32
g7
sg33
g7
sg34
I662086
sg35
g7
sS'restricted_stock_deferred_fraction'
p584
F-2.4935256809379585
sg37
g7
sS'expenses_fraction'
p585
g5
sg39
g7
sS'long_term_incentive_fraction'
p586
g5
ssS'LEWIS RICHARD'
p587
(dp588
g3
I952
sS'exercised_stock_options_fraction'
p589
F1.0
sg6
g7
sg8
F0.0
sS'restricted_stock_fraction'
p590
g5
sg10
g7
sS'bonus_fraction'
p591
g5
sS'loan_advances_fraction'
p592
g5
sS'other_fraction'
p593
g5
sg14
I00
sS'salary_fraction'
p594
g5
sg16
g7
sg17
S'richard.lewis@enron.com'
p595
sg19
g7
sS'director_fees_fraction'
p596
g5
sg21
g7
sg22
I739
sg23
g7
sg24
I26
sg25
g7
sg26
g7
sS'deferral_payments_fraction'
p597
g5
sS'deferred_income_fraction'
p598
g5
sg29
g7
sg30
F0.01050420168067227
sg31
I850477
sg32
I10
sg33
I0
sg34
g7
sg35
g7
sS'restricted_stock_deferred_fraction'
p599
g5
sg37
g7
sS'expenses_fraction'
p600
g5
sg39
I850477
sS'long_term_incentive_fraction'
p601
g5
ssS'HAYES ROBERT E'
p602
(dp603
g3
I504
sS'exercised_stock_options_fraction'
p604
g5
sg6
I7961
sg8
F0.0
sS'restricted_stock_fraction'
p605
F1.0
sg10
g7
sS'bonus_fraction'
p606
g5
sS'loan_advances_fraction'
p607
g5
sS'other_fraction'
p608
g5
sg14
I00
sS'salary_fraction'
p609
g5
sg16
g7
sg17
S'robert.hayes@enron.com'
p610
sg19
g7
sS'director_fees_fraction'
p611
g5
sg21
g7
sg22
I50
sg23
g7
sg24
I12
sg25
g7
sg26
g7
sS'deferral_payments_fraction'
p612
F1.0
sS'deferred_income_fraction'
p613
g5
sg29
g7
sg30
F0.031746031746031744
sg31
I151418
sg32
I16
sg33
I0
sg34
I151418
sg35
g7
sS'restricted_stock_deferred_fraction'
p614
g5
sg37
I7961
sS'expenses_fraction'
p615
g5
sg39
g7
sS'long_term_incentive_fraction'
p616
g5
ssS'MCCARTY DANNY J'
p617
(dp618
g3
I1433
sS'exercised_stock_options_fraction'
p619
F0.8754089633971995
sg6
g7
sg8
F0.009302325581395349
sS'restricted_stock_fraction'
p620
F0.12459103660280052
sg10
g7
sS'bonus_fraction'
p621
g5
sS'loan_advances_fraction'
p622
g5
sS'other_fraction'
p623
g5
sg14
I00
sS'salary_fraction'
p624
g5
sg16
g7
sg17
S'danny.mccarty@enron.com'
p625
sg19
g7
sS'director_fees_fraction'
p626
g5
sg21
g7
sg22
I508
sg23
g7
sg24
I215
sg25
g7
sg26
g7
sS'deferral_payments_fraction'
p627
g5
sS'deferred_income_fraction'
p628
g5
sg29
g7
sg30
F0.017445917655268667
sg31
I758931
sg32
I25
sg33
I2
sg34
I94556
sg35
g7
sS'restricted_stock_deferred_fraction'
p629
g5
sg37
g7
sS'expenses_fraction'
p630
g5
sg39
I664375
sS'long_term_incentive_fraction'
p631
g5
ssS'KOPPER MICHAEL J'
p632
(dp633
g3
g7
sS'exercised_stock_options_fraction'
p634
g5
sg6
g7
sg8
g5
sS'restricted_stock_fraction'
p635
F1.0
sg10
I118134
sS'bonus_fraction'
p636
F0.30158952760524343
sS'loan_advances_fraction'
p637
g5
sS'other_fraction'
p638
F0.34211637435101705
sg14
I01
sS'salary_fraction'
p639
F0.08456004873686766
sg16
g7
sg17
S'michael.kopper@enron.com'
p640
sg19
I602671
sS'director_fees_fraction'
p641
g5
sg21
g7
sg22
g7
sg23
g7
sg24
g7
sg25
I907502
sg26
g7
sS'deferral_payments_fraction'
p642
g5
sS'deferred_income_fraction'
p643
g5
sg29
I800000
sg30
g5
sg31
I985032
sg32
g7
sg33
g7
sg34
I985032
sg35
I224305
sS'restricted_stock_deferred_fraction'
p644
g5
sg37
I2652612
sS'expenses_fraction'
p645
F0.04453497156764728
sg39
g7
sS'long_term_incentive_fraction'
p646
F0.22719907773922457
ssS'LEFF DANIEL P'
p647
(dp648
g3
I2822
sS'exercised_stock_options_fraction'
p649
g5
sg6
g7
sg8
F0.2222222222222222
sS'restricted_stock_fraction'
p650
F1.0
sg10
g7
sS'bonus_fraction'
p651
F0.3753432514034084
sS'loan_advances_fraction'
p652
g5
sS'other_fraction'
p653
F0.001157183244076708
sg14
I00
sS'salary_fraction'
p654
F0.10274871369867744
sg16
g7
sg17
S'dan.leff@enron.com'
p655
sg19
I1387399
sS'director_fees_fraction'
p656
g5
sg21
g7
sg22
I2672
sg23
g7
sg24
I63
sg25
I3083
sg26
g7
sS'deferral_payments_fraction'
p657
g5
sS'deferred_income_fraction'
p658
g5
sg29
I1000000
sg30
F0.02374202693125443
sg31
I360528
sg32
I67
sg33
I14
sg34
I360528
sg35
I273746
sS'restricted_stock_deferred_fraction'
p659
g5
sg37
I2664228
sS'expenses_fraction'
p660
g5
sg39
g7
sS'long_term_incentive_fraction'
p661
F0.5207508516538374
ssS'LAVORATO JOHN J'
p662
(dp663
g3
I7259
sS'exercised_stock_options_fraction'
p664
F0.80489241252034
sg6
g7
sg8
F0.15899419729206962
sS'restricted_stock_fraction'
p665
F0.19510758747965995
sg10
I49537
sS'bonus_fraction'
p666
F0.767330372269371
sS'loan_advances_fraction'
p667
g5
sS'other_fraction'
p668
F0.00014886209222025797
sg14
I00
sS'salary_fraction'
p669
F0.03254324841831629
sg16
g7
sg17
S'john.lavorato@enron.com'
p670
sg19
I2035380
sS'director_fees_fraction'
p671
g5
sg21
g7
sg22
I3962
sg23
g7
sg24
I2585
sg25
I1552
sg26
g7
sS'deferral_payments_fraction'
p672
g5
sS'deferred_income_fraction'
p673
g5
sg29
I8000000
sg30
F0.07273729163796666
sg31
I5167144
sg32
I528
sg33
I411
sg34
I1008149
sg35
I339288
sS'restricted_stock_deferred_fraction'
p674
g5
sg37
I10425757
sS'expenses_fraction'
p675
F0.004751405581388478
sg39
I4158995
sS'long_term_incentive_fraction'
p676
F0.19522611163870404
ssS'BERBERIAN DAVID'
p677
(dp678
g3
g7
sS'exercised_stock_options_fraction'
p679
F0.6514218708895034
sg6
g7
sg8
g5
sS'restricted_stock_fraction'
p680
F0.34857812911049657
sg10
I11892
sS'bonus_fraction'
p681
g5
sS'loan_advances_fraction'
p682
g5
sS'other_fraction'
p683
g5
sg14
I00
sS'salary_fraction'
p684
F0.9479503138212663
sg16
g7
sg17
S'david.berberian@enron.com'
p685
sg19
g7
sS'director_fees_fraction'
p686
g5
sg21
g7
sg22
g7
sg23
g7
sg24
g7
sg25
g7
sg26
g7
sS'deferral_payments_fraction'
p687
g5
sS'deferred_income_fraction'
p688
g5
sg29
g7
sg30
g5
sg31
I2493616
sg32
g7
sg33
g7
sg34
I869220
sg35
I216582
sS'restricted_stock_deferred_fraction'
p689
g5
sg37
I228474
sS'expenses_fraction'
p690
F0.052049686178733685
sg39
I1624396
sS'long_term_incentive_fraction'
p691
g5
ssS'DETMERING TIMOTHY J'
p692
(dp693
g3
g7
sS'exercised_stock_options_fraction'
p694
F1.0
sg6
I875307
sg8
g5
sS'restricted_stock_fraction'
p695
F0.15536931699102258
sg10
I52255
sS'bonus_fraction'
p696
F0.3528191913716199
sS'loan_advances_fraction'
p697
g5
sS'other_fraction'
p698
F0.0009173298975662117
sg14
I00
sS'salary_fraction'
p699
F0.17474927007935526
sg16
I-775241
sg17
S'timothy.detmering@enron.com'
p700
sg19
I415657
sS'director_fees_fraction'
p701
g5
sg21
I-315068
sg22
g7
sg23
g7
sg24
g7
sg25
I1105
sg26
g7
sS'deferral_payments_fraction'
p702
F0.7266473128045141
sS'deferred_income_fraction'
p703
F-0.643576241736767
sg29
I425000
sg30
g5
sg31
I2027865
sg32
g7
sg33
g7
sg34
I315068
sg35
I210500
sS'restricted_stock_deferred_fraction'
p704
F-0.15536931699102258
sg37
I1204583
sS'expenses_fraction'
p705
F0.0433801572826447
sg39
I2027865
sS'long_term_incentive_fraction'
p706
F0.34506298030106686
ssS'WAKEHAM JOHN'
p707
(dp708
g3
g7
sS'exercised_stock_options_fraction'
p709
g5
sg6
g7
sg8
g5
sS'restricted_stock_fraction'
p710
g5
sg10
I103773
sS'bonus_fraction'
p711
g5
sS'loan_advances_fraction'
p712
g5
sS'other_fraction'
p713
g5
sg14
I00
sS'salary_fraction'
p714
g5
sg16
g7
sg17
g7
sg19
g7
sS'director_fees_fraction'
p715
F0.5129651618474593
sg21
g7
sg22
g7
sg23
g7
sg24
g7
sg25
g7
sg26
I109298
sS'deferral_payments_fraction'
p716
g5
sS'deferred_income_fraction'
p717
g5
sg29
g7
sg30
g5
sg31
g7
sg32
g7
sg33
g7
sg34
g7
sg35
g7
sS'restricted_stock_deferred_fraction'
p718
g5
sg37
I213071
sS'expenses_fraction'
p719
F0.4870348381525407
sg39
g7
sS'long_term_incentive_fraction'
p720
g5
ssS'POWERS WILLIAM'
p721
(dp722
g3
I653
sS'exercised_stock_options_fraction'
p723
g5
sg6
g7
sg8
F0.0
sS'restricted_stock_fraction'
p724
g5
sg10
g7
sS'bonus_fraction'
p725
g5
sS'loan_advances_fraction'
p726
g5
sS'other_fraction'
p727
g5
sg14
I00
sS'salary_fraction'
p728
g5
sg16
I-17500
sg17
S'ken.powers@enron.com'
p729
sg19
g7
sS'director_fees_fraction'
p730
g5
sg21
g7
sg22
I12
sg23
g7
sg24
I26
sg25
g7
sg26
I17500
sS'deferral_payments_fraction'
p731
g5
sS'deferred_income_fraction'
p732
g5
sg29
g7
sg30
F0.0
sg31
g7
sg32
I0
sg33
I0
sg34
g7
sg35
g7
sS'restricted_stock_deferred_fraction'
p733
g5
sg37
g7
sS'expenses_fraction'
p734
g5
sg39
g7
sS'long_term_incentive_fraction'
p735
g5
ssS'GOLD JOSEPH'
p736
(dp737
g3
g7
sS'exercised_stock_options_fraction'
p738
F0.4973900737342627
sg6
g7
sg8
g5
sS'restricted_stock_fraction'
p739
F0.5026099262657373
sg10
g7
sS'bonus_fraction'
p740
F0.34932903208377564
sS'loan_advances_fraction'
p741
g5
sS'other_fraction'
p742
F0.38160144538380314
sg14
I00
sS'salary_fraction'
p743
F0.12709987503336093
sg16
g7
sg17
S'joe.gold@enron.com'
p744
sg19
I304805
sS'director_fees_fraction'
p745
g5
sg21
g7
sg22
g7
sg23
g7
sg24
g7
sg25
I819288
sg26
g7
sS'deferral_payments_fraction'
p746
g5
sS'deferred_income_fraction'
p747
g5
sg29
I750000
sg30
g5
sg31
I877611
sg32
g7
sg33
g7
sg34
I441096
sg35
I272880
sS'restricted_stock_deferred_fraction'
p748
g5
sg37
I2146973
sS'expenses_fraction'
p749
g5
sg39
I436515
sS'long_term_incentive_fraction'
p750
F0.1419696474990603
ssS'BANNANTINE JAMES M'
p751
(dp752
g3
I566
sS'exercised_stock_options_fraction'
p753
F0.7716538631639595
sg6
g7
sg8
F0.0
sS'restricted_stock_fraction'
p754
F0.33518763372541976
sg10
I56301
sS'bonus_fraction'
p755
g5
sS'loan_advances_fraction'
p756
g5
sS'other_fraction'
p757
F0.943599466053698
sg14
I00
sS'salary_fraction'
p758
F0.0005206303884426602
sg16
I-5104
sg17
S'james.bannantine@enron.com'
p759
sg19
g7
sS'director_fees_fraction'
p760
g5
sg21
I-560222
sg22
I465
sg23
g7
sg24
I29
sg25
I864523
sg26
g7
sS'deferral_payments_fraction'
p761
g5
sS'deferred_income_fraction'
p762
F-0.005570854303168424
sg29
g7
sg30
F0.06890459363957598
sg31
I5243487
sg32
I39
sg33
I0
sg34
I1757552
sg35
I477
sS'restricted_stock_deferred_fraction'
p763
F-0.10684149688937915
sg37
I916197
sS'expenses_fraction'
p764
F0.0614507578610277
sg39
I4046157
sS'long_term_incentive_fraction'
p765
g5
ssS'DUNCAN JOHN H'
p766
(dp767
g3
g7
sS'exercised_stock_options_fraction'
p768
F1.0
sg6
g7
sg8
g5
sS'restricted_stock_fraction'
p769
g5
sg10
g7
sS'bonus_fraction'
p770
g5
sS'loan_advances_fraction'
p771
g5
sS'other_fraction'
p772
g5
sg14
I00
sS'salary_fraction'
p773
g5
sg16
I-25000
sg17
g7
sg19
g7
sS'director_fees_fraction'
p774
F1.3226139472461673
sg21
g7
sg22
g7
sg23
g7
sg24
g7
sg25
g7
sg26
I102492
sS'deferral_payments_fraction'
p775
g5
sS'deferred_income_fraction'
p776
F-0.3226139472461673
sg29
g7
sg30
g5
sg31
I371750
sg32
g7
sg33
g7
sg34
g7
sg35
g7
sS'restricted_stock_deferred_fraction'
p777
g5
sg37
I77492
sS'expenses_fraction'
p778
g5
sg39
I371750
sS'long_term_incentive_fraction'
p779
g5
ssS'SHAPIRO RICHARD S'
p780
(dp781
g3
I15149
sS'exercised_stock_options_fraction'
p782
F0.6158423345062467
sg6
g7
sg8
F0.053497942386831275
sS'restricted_stock_fraction'
p783
F0.3841576654937533
sg10
I137767
sS'bonus_fraction'
p784
F0.6146293123338137
sS'loan_advances_fraction'
p785
g5
sS'other_fraction'
p786
F0.0006666364079928287
sg14
I00
sS'salary_fraction'
p787
F0.25443384130082036
sg16
g7
sg17
S'richard.shapiro@enron.com'
p788
sg19
g7
sS'director_fees_fraction'
p789
g5
sg21
g7
sg22
I4527
sg23
g7
sg24
I1215
sg25
I705
sg26
g7
sS'deferral_payments_fraction'
p790
g5
sS'deferred_income_fraction'
p791
g5
sg29
I650000
sg30
F0.0048848108786058485
sg31
I987001
sg32
I74
sg33
I65
sg34
I379164
sg35
I269076
sS'restricted_stock_deferred_fraction'
p792
g5
sg37
I1057548
sS'expenses_fraction'
p793
F0.1302702099573731
sg39
I607837
sS'long_term_incentive_fraction'
p794
g5
ssS'SHERRIFF JOHN R'
p795
(dp796
g3
I3187
sS'exercised_stock_options_fraction'
p797
F0.5866310512492562
sg6
g7
sg8
F0.25
sS'restricted_stock_fraction'
p798
F0.41336894875074387
sg10
g7
sS'bonus_fraction'
p799
F0.34598979376240374
sS'loan_advances_fraction'
p800
g5
sS'other_fraction'
p801
F0.42722496809974103
sg14
I00
sS'salary_fraction'
p802
F0.09890233584629565
sg16
g7
sg17
S'john.sherriff@enron.com'
p803
sg19
I554422
sS'director_fees_fraction'
p804
g5
sg21
g7
sg22
I2103
sg23
g7
sg24
I92
sg25
I1852186
sg26
g7
sS'deferral_payments_fraction'
p805
g5
sS'deferred_income_fraction'
p806
g5
sg29
I1500000
sg30
F0.008785691873235017
sg31
I3128982
sg32
I28
sg33
I23
sg34
I1293424
sg35
I428780
sS'restricted_stock_deferred_fraction'
p807
g5
sg37
I4335388
sS'expenses_fraction'
p808
g5
sg39
I1835558
sS'long_term_incentive_fraction'
p809
F0.1278829022915596
ssS'SHELBY REX'
p810
(dp811
g3
I225
sS'exercised_stock_options_fraction'
p812
F0.6514218708895034
sg6
g7
sg8
F0.358974358974359
sS'restricted_stock_fraction'
p813
F0.34857812911049657
sg10
I22884
sS'bonus_fraction'
p814
F0.09980612659908128
sS'loan_advances_fraction'
p815
g5
sS'other_fraction'
p816
F0.7851368716268649
sg14
I01
sS'salary_fraction'
p817
F0.10571664541627888
sg16
I-4167
sg17
S'rex.shelby@enron.com'
p818
sg19
g7
sS'director_fees_fraction'
p819
g5
sg21
g7
sg22
I91
sg23
g7
sg24
I39
sg25
I1573324
sg26
g7
sS'deferral_payments_fraction'
p820
g5
sS'deferred_income_fraction'
p821
F-0.0020794606476918585
sg29
I200000
sg30
F0.057777777777777775
sg31
I2493616
sg32
I13
sg33
I14
sg34
I869220
sg35
I211844
sS'restricted_stock_deferred_fraction'
p822
g5
sg37
I2003885
sS'expenses_fraction'
p823
F0.011419817005466881
sg39
I1624396
sS'long_term_incentive_fraction'
p824
g5
ssS'LEMAISTRE CHARLES'
p825
(dp826
g3
g7
sS'exercised_stock_options_fraction'
p827
F1.0
sg6
g7
sg8
g5
sS'restricted_stock_fraction'
p828
g5
sg10
g7
sS'bonus_fraction'
p829
g5
sS'loan_advances_fraction'
p830
g5
sS'other_fraction'
p831
g5
sg14
I00
sS'salary_fraction'
p832
g5
sg16
I-25000
sg17
g7
sg19
g7
sS'director_fees_fraction'
p833
F1.285740410551822
sg21
g7
sg22
g7
sg23
g7
sg24
g7
sg25
g7
sg26
I112492
sS'deferral_payments_fraction'
p834
g5
sS'deferred_income_fraction'
p835
F-0.28574041055182187
sg29
g7
sg30
g5
sg31
I412878
sg32
g7
sg33
g7
sg34
g7
sg35
g7
sS'restricted_stock_deferred_fraction'
p836
g5
sg37
I87492
sS'expenses_fraction'
p837
g5
sg39
I412878
sS'long_term_incentive_fraction'
p838
g5
ssS'DEFFNER JOSEPH M'
p839
(dp840
g3
I714
sS'exercised_stock_options_fraction'
p841
F0.10915074963413332
sg6
g7
sg8
F0.05405405405405406
sS'restricted_stock_fraction'
p842
F0.8908492503658667
sg10
I41626
sS'bonus_fraction'
p843
F0.49642203815996205
sS'loan_advances_fraction'
p844
g5
sS'other_fraction'
p845
F0.021141787235169185
sg14
I00
sS'salary_fraction'
p846
F0.17053834487928257
sg16
g7
sg17
S'joseph.deffner@enron.com'
p847
sg19
I335349
sS'director_fees_fraction'
p848
g5
sg21
g7
sg22
I552
sg23
g7
sg24
I74
sg25
I25553
sg26
g7
sS'deferral_payments_fraction'
p849
g5
sS'deferred_income_fraction'
p850
g5
sg29
I600000
sg30
F0.16106442577030813
sg31
I159211
sg32
I115
sg33
I4
sg34
I141833
sg35
I206121
sS'restricted_stock_deferred_fraction'
p851
g5
sg37
I1208649
sS'expenses_fraction'
p852
F0.034440106267410966
sg39
I17378
sS'long_term_incentive_fraction'
p853
F0.2774577234581752
ssS'KISHKILL JOSEPH G'
p854
(dp855
g3
g7
sS'exercised_stock_options_fraction'
p856
g5
sg6
g7
sg8
g5
sS'restricted_stock_fraction'
p857
F1.0
sg10
I116335
sS'bonus_fraction'
p858
g5
sS'loan_advances_fraction'
p859
g5
sS'other_fraction'
p860
F0.660178239059379
sg14
I00
sS'salary_fraction'
p861
F0.2471939122934447
sg16
I-51042
sg17
S'joe.kishkill@enron.com'
p862
sg19
g7
sS'director_fees_fraction'
p863
g5
sg21
g7
sg22
g7
sg23
g7
sg24
g7
sg25
I465357
sg26
g7
sS'deferral_payments_fraction'
p864
g5
sS'deferred_income_fraction'
p865
F-0.07241068185945161
sg29
g7
sg30
g5
sg31
I1034346
sg32
g7
sg33
g7
sg34
I1034346
sg35
I174246
sS'restricted_stock_deferred_fraction'
p866
g5
sg37
I704896
sS'expenses_fraction'
p867
F0.16503853050662792
sg39
g7
sS'long_term_incentive_fraction'
p868
g5
ssS'WHALLEY LAWRENCE G'
p869
(dp870
g3
I6019
sS'exercised_stock_options_fraction'
p871
F0.5400371796194098
sg6
g7
sg8
F0.04316546762589928
sS'restricted_stock_fraction'
p872
F0.4599628203805902
sg10
I57838
sS'bonus_fraction'
p873
F0.6413581057189047
sS'loan_advances_fraction'
p874
g5
sS'other_fraction'
p875
F0.06435515504404633
sg14
I00
sS'salary_fraction'
p876
F0.10910869608904103
sg16
g7
sg17
S'greg.whalley@enron.com'
p877
sg19
I808346
sS'director_fees_fraction'
p878
g5
sg21
g7
sg22
I3920
sg23
g7
sg24
I556
sg25
I301026
sg26
g7
sS'deferral_payments_fraction'
p879
g5
sS'deferred_income_fraction'
p880
g5
sg29
I3000000
sg30
F0.03090214321315833
sg31
I6079137
sg32
I186
sg33
I24
sg34
I2796177
sg35
I510364
sS'restricted_stock_deferred_fraction'
p881
g5
sg37
I4677574
sS'expenses_fraction'
p882
F0.012364956706190004
sg39
I3282960
sS'long_term_incentive_fraction'
p883
F0.17281308644181792
ssS'MCCONNELL MICHAEL S'
p884
(dp885
g3
I3329
sS'exercised_stock_options_fraction'
p886
F0.5233356947246603
sg6
g7
sg8
F0.07075127644055434
sS'restricted_stock_fraction'
p887
F0.47666430527533965
sg10
I81364
sS'bonus_fraction'
p888
F0.5234695178940917
sS'loan_advances_fraction'
p889
g5
sS'other_fraction'
p890
F0.00025697594514800863
sg14
I00
sS'salary_fraction'
p891
F0.17371478715729402
sg16
g7
sg17
S'mike.mcconnell@enron.com'
p892
sg19
I554422
sS'director_fees_fraction'
p893
g5
sg21
g7
sg22
I2189
sg23
g7
sg24
I2742
sg25
I540
sg26
g7
sS'deferral_payments_fraction'
p894
g5
sS'deferred_income_fraction'
p895
g5
sg29
I1100000
sg30
F0.02763592670471613
sg31
I3101279
sg32
I92
sg33
I194
sg34
I1478269
sg35
I365038
sS'restricted_stock_deferred_fraction'
p896
g5
sg37
I2101364
sS'expenses_fraction'
p897
F0.038719612594486245
sg39
I1623010
sS'long_term_incentive_fraction'
p898
F0.26383910640898006
ssS'PIRO JIM'
p899
(dp900
g3
I58
sS'exercised_stock_options_fraction'
p901
g5
sg6
g7
sg8
F0.0625
sS'restricted_stock_fraction'
p902
F1.0
sg10
g7
sS'bonus_fraction'
p903
g5
sS'loan_advances_fraction'
p904
g5
sS'other_fraction'
p905
g5
sg14
I00
sS'salary_fraction'
p906
g5
sg16
g7
sg17
S'jim.piro@enron.com'
p907
sg19
g7
sS'director_fees_fraction'
p908
g5
sg21
g7
sg22
I3
sg23
g7
sg24
I16
sg25
g7
sg26
g7
sS'deferral_payments_fraction'
p909
g5
sS'deferred_income_fraction'
p910
g5
sg29
g7
sg30
F0.0
sg31
I47304
sg32
I0
sg33
I1
sg34
I47304
sg35
g7
sS'restricted_stock_deferred_fraction'
p911
g5
sg37
g7
sS'expenses_fraction'
p912
g5
sg39
g7
sS'long_term_incentive_fraction'
p913
g5
ssS'DELAINEY DAVID W'
p914
(dp915
g3
I3093
sS'exercised_stock_options_fraction'
p916
F0.6339091172441614
sg6
g7
sg8
F0.198435972629521
sS'restricted_stock_fraction'
p917
F0.3660908827558386
sg10
I86174
sS'bonus_fraction'
p918
F0.6318477819720769
sS'loan_advances_fraction'
p919
g5
sS'other_fraction'
p920
F0.0003498330552852066
sg14
I01
sS'salary_fraction'
p921
F0.07690914386942319
sg16
g7
sg17
S'david.delainey@enron.com'
p922
sg19
I1294981
sS'director_fees_fraction'
p923
g5
sg21
g7
sg22
I2097
sg23
g7
sg24
I3069
sg25
I1661
sg26
g7
sS'deferral_payments_fraction'
p924
g5
sS'deferred_income_fraction'
p925
g5
sg29
I3000000
sg30
F0.02133850630455868
sg31
I3614261
sg32
I66
sg33
I609
sg34
I1323148
sg35
I365163
sS'restricted_stock_deferred_fraction'
p926
g5
sg37
I4747979
sS'expenses_fraction'
p927
F0.018149616921220586
sg39
I2291113
sS'long_term_incentive_fraction'
p928
F0.27274362418199405
ssS'SULLIVAN-SHAKLOVITZ COLLEEN'
p929
(dp930
g3
g7
sS'exercised_stock_options_fraction'
p931
F1.0
sg6
I181993
sg8
g5
sS'restricted_stock_fraction'
p932
g5
sg10
g7
sS'bonus_fraction'
p933
F0.10006444150032621
sS'loan_advances_fraction'
p934
g5
sS'other_fraction'
p935
F0.00016210439523052847
sg14
I00
sS'salary_fraction'
p936
F0.162883897229816
sg16
g7
sg17
g7
sg19
I554422
sS'director_fees_fraction'
p937
g5
sg21
g7
sg22
g7
sg23
g7
sg24
g7
sg25
I162
sg26
g7
sS'deferral_payments_fraction'
p938
F0.18211027901968868
sS'deferred_income_fraction'
p939
g5
sg29
I100000
sg30
g5
sg31
I1362375
sg32
g7
sg33
g7
sg34
g7
sg35
I162779
sS'restricted_stock_deferred_fraction'
p940
g5
sg37
I999356
sS'expenses_fraction'
p941
g5
sg39
I1362375
sS'long_term_incentive_fraction'
p942
F0.5547792778549386
ssS'WROBEL BRUCE'
p943
(dp944
g3
g7
sS'exercised_stock_options_fraction'
p945
F1.0
sg6
g7
sg8
g5
sS'restricted_stock_fraction'
p946
g5
sg10
g7
sS'bonus_fraction'
p947
g5
sS'loan_advances_fraction'
p948
g5
sS'other_fraction'
p949
g5
sg14
I00
sS'salary_fraction'
p950
g5
sg16
g7
sg17
g7
sg19
g7
sS'director_fees_fraction'
p951
g5
sg21
g7
sg22
g7
sg23
g7
sg24
g7
sg25
g7
sg26
g7
sS'deferral_payments_fraction'
p952
g5
sS'deferred_income_fraction'
p953
g5
sg29
g7
sg30
g5
sg31
I139130
sg32
g7
sg33
g7
sg34
g7
sg35
g7
sS'restricted_stock_deferred_fraction'
p954
g5
sg37
g7
sS'expenses_fraction'
p955
g5
sg39
I139130
sS'long_term_incentive_fraction'
p956
g5
ssS'LINDHOLM TOD A'
p957
(dp958
g3
g7
sS'exercised_stock_options_fraction'
p959
F0.8319804008083003
sg6
I204075
sg8
g5
sS'restricted_stock_fraction'
p960
F0.1680195991916998
sg10
I57727
sS'bonus_fraction'
p961
F0.22833943570475254
sS'loan_advances_fraction'
p962
g5
sS'other_fraction'
p963
F0.003002663579517496
sg14
I00
sS'salary_fraction'
p964
F0.2699622897421934
sg16
g7
sg17
S'tod.lindholm@enron.com'
p965
sg19
I175000
sS'director_fees_fraction'
p966
g5
sg21
g7
sg22
g7
sg23
g7
sg24
g7
sg25
I2630
sg26
g7
sS'deferral_payments_fraction'
p967
F0.23299185170723688
sS'deferred_income_fraction'
p968
g5
sg29
I200000
sg30
g5
sg31
I3064208
sg32
g7
sg33
g7
sg34
I514847
sg35
I236457
sS'restricted_stock_deferred_fraction'
p969
g5
sg37
I875889
sS'expenses_fraction'
p970
F0.06590675302464125
sg39
I2549361
sS'long_term_incentive_fraction'
p971
F0.19979700624165847
ssS'MEYER JEROME J'
p972
(dp973
g3
g7
sS'exercised_stock_options_fraction'
p974
g5
sg6
g7
sg8
g5
sS'restricted_stock_fraction'
p975
g5
sg10
I2151
sS'bonus_fraction'
p976
g5
sS'loan_advances_fraction'
p977
g5
sS'other_fraction'
p978
g5
sg14
I00
sS'salary_fraction'
p979
g5
sg16
I-38346
sg17
g7
sg19
g7
sS'director_fees_fraction'
p980
F17.82705718270572
sg21
g7
sg22
g7
sg23
g7
sg24
g7
sg25
g7
sg26
I38346
sS'deferral_payments_fraction'
p981
g5
sS'deferred_income_fraction'
p982
F-17.82705718270572
sg29
g7
sg30
g5
sg31
g7
sg32
g7
sg33
g7
sg34
g7
sg35
g7
sS'restricted_stock_deferred_fraction'
p983
g5
sg37
I2151
sS'expenses_fraction'
p984
F1.0
sg39
g7
sS'long_term_incentive_fraction'
p985
g5
ssS'LAY KENNETH L'
p986
(dp987
g3
I4273
sS'exercised_stock_options_fraction'
p988
F0.6994161972212709
sg6
I202911
sg8
F0.4444444444444444
sS'restricted_stock_fraction'
p989
F0.30058380277872904
sg10
I99832
sS'bonus_fraction'
p990
F0.06759380061719514
sS'loan_advances_fraction'
p991
F0.7872263707595476
sS'other_fraction'
p992
F0.10003620806773919
sg14
I01
sS'salary_fraction'
p993
F0.010354607410233042
sg16
I-300000
sg17
S'kenneth.lay@enron.com'
p994
sg19
I3600000
sS'director_fees_fraction'
p995
g5
sg21
g7
sg22
I2411
sg23
I81525000
sg24
I36
sg25
I10359729
sg26
g7
sS'deferral_payments_fraction'
p996
F0.001959360811005097
sS'deferred_income_fraction'
p997
F-0.002896877169308363
sg29
I7000000
sg30
F0.028785396676807865
sg31
I49110078
sg32
I123
sg33
I16
sg34
I14761694
sg35
I1072321
sS'restricted_stock_deferred_fraction'
p998
g5
sg37
I103559793
sS'expenses_fraction'
p999
F0.0009640034718879749
sg39
I34348384
sS'long_term_incentive_fraction'
p1000
F0.03476252603170035
ssS'BUTTS ROBERT H'
p1001
(dp1002
g3
g7
sS'exercised_stock_options_fraction'
p1003
g5
sg6
g7
sg8
g5
sS'restricted_stock_fraction'
p1004
F1.0
sg10
I9410
sS'bonus_fraction'
p1005
F0.5898164648445794
sS'loan_advances_fraction'
p1006
g5
sS'other_fraction'
p1007
F0.11847918577016661
sg14
I00
sS'salary_fraction'
p1008
F0.20566192349372672
sg16
I-75000
sg17
S'bob.butts@enron.com'
p1009
sg19
I175000
sS'director_fees_fraction'
p1010
g5
sg21
g7
sg22
g7
sg23
g7
sg24
g7
sg25
I150656
sg26
g7
sS'deferral_payments_fraction'
p1011
g5
sS'deferred_income_fraction'
p1012
F-0.058981646484457945
sg29
I750000
sg30
g5
sg31
I417619
sg32
g7
sg33
g7
sg34
I417619
sg35
I261516
sS'restricted_stock_deferred_fraction'
p1013
g5
sg37
I1271582
sS'expenses_fraction'
p1014
F0.007400230578916657
sg39
g7
sS'long_term_incentive_fraction'
p1015
F0.13762384179706855
ssS'OLSON CINDY K'
p1016
(dp1017
g3
I1184
sS'exercised_stock_options_fraction'
p1018
F0.6279949500587511
sg6
I77716
sg8
F0.28846153846153844
sS'restricted_stock_fraction'
p1019
F0.372005049941249
sg10
I63791
sS'bonus_fraction'
p1020
F0.5675124114964394
sS'loan_advances_fraction'
p1021
g5
sS'other_fraction'
p1022
F0.0007354960852993855
sg14
I00
sS'salary_fraction'
p1023
F0.2490077991339004
sg16
g7
sg17
S'cindy.olson@enron.com'
p1024
sg19
I100000
sS'director_fees_fraction'
p1025
g5
sg21
g7
sg22
I856
sg23
g7
sg24
I52
sg25
I972
sg26
g7
sS'deferral_payments_fraction'
p1026
F0.05880639276247638
sS'deferred_income_fraction'
p1027
g5
sg29
I750000
sg30
F0.016891891891891893
sg31
I2606763
sg32
I20
sg33
I15
sg34
I969729
sg35
I329078
sS'restricted_stock_deferred_fraction'
p1028
g5
sg37
I1321557
sS'expenses_fraction'
p1029
F0.04826957898902582
sg39
I1637034
sS'long_term_incentive_fraction'
p1030
F0.07566832153285859
ssS'MCDONALD REBECCA'
p1031
(dp1032
g3
I894
sS'exercised_stock_options_fraction'
p1033
F0.4477451953036776
sg6
g7
sg8
F0.07692307692307693
sS'restricted_stock_fraction'
p1034
F0.5522548046963224
sg10
g7
sS'bonus_fraction'
p1035
g5
sS'loan_advances_fraction'
p1036
g5
sS'other_fraction'
p1037
g5
sg14
I00
sS'salary_fraction'
p1038
g5
sg16
g7
sg17
S'rebecca.mcdonald@enron.com'
p1039
sg19
g7
sS'director_fees_fraction'
p1040
g5
sg21
g7
sg22
I720
sg23
g7
sg24
I13
sg25
g7
sg26
g7
sS'deferral_payments_fraction'
p1041
g5
sS'deferred_income_fraction'
p1042
g5
sg29
g7
sg30
F0.06040268456375839
sg31
I1691366
sg32
I54
sg33
I1
sg34
I934065
sg35
g7
sS'restricted_stock_deferred_fraction'
p1043
g5
sg37
g7
sS'expenses_fraction'
p1044
g5
sg39
I757301
sS'long_term_incentive_fraction'
p1045
g5
ssS'CUMBERLAND MICHAEL S'
p1046
(dp1047
g3
g7
sS'exercised_stock_options_fraction'
p1048
g5
sg6
g7
sg8
g5
sS'restricted_stock_fraction'
p1049
F1.0
sg10
I22344
sS'bonus_fraction'
p1050
F0.4022496274549604
sS'loan_advances_fraction'
p1051
g5
sS'other_fraction'
p1052
F0.0008824737980781132
sg14
I00
sS'salary_fraction'
p1053
F0.2288478580516761
sg16
g7
sg17
g7
sg19
I275000
sS'director_fees_fraction'
p1054
g5
sg21
g7
sg22
g7
sg23
g7
sg24
g7
sg25
I713
sg26
g7
sS'deferral_payments_fraction'
p1055
g5
sS'deferred_income_fraction'
p1056
g5
sg29
I325000
sg30
g5
sg31
I207940
sg32
g7
sg33
g7
sg34
I207940
sg35
I184899
sS'restricted_stock_deferred_fraction'
p1057
g5
sg37
I807956
sS'expenses_fraction'
p1058
F0.02765497131031888
sg39
g7
sS'long_term_incentive_fraction'
p1059
F0.3403650693849665
ssS'GAHN ROBERT S'
p1060
(dp1061
g3
g7
sS'exercised_stock_options_fraction'
p1062
F0.2612528914932817
sg6
I73122
sg8
g5
sS'restricted_stock_fraction'
p1063
F0.7387471085067183
sg10
I50080
sS'bonus_fraction'
p1064
F0.5661542219779365
sS'loan_advances_fraction'
p1065
g5
sS'other_fraction'
p1066
F0.08499697418899937
sg14
I00
sS'salary_fraction'
p1067
F0.21320363985631563
sg16
I-1042
sg17
g7
sg19
g7
sS'director_fees_fraction'
p1068
g5
sg21
g7
sg22
g7
sg23
g7
sg24
g7
sg25
I76547
sg26
g7
sS'deferral_payments_fraction'
p1069
F0.08119389063775213
sS'deferred_income_fraction'
p1070
F-0.0011570257110655852
sg29
I509870
sg30
g5
sg31
I318607
sg32
g7
sg33
g7
sg34
I235370
sg35
I192008
sS'restricted_stock_deferred_fraction'
p1071
g5
sg37
I900585
sS'expenses_fraction'
p1072
F0.055608299050061906
sg39
I83237
sS'long_term_incentive_fraction'
p1073
g5
ssS'MCCLELLAN GEORGE'
p1074
(dp1075
g3
I1744
sS'exercised_stock_options_fraction'
p1076
F0.534640627686971
sg6
g7
sg8
F0.0
sS'restricted_stock_fraction'
p1077
F0.46535937231302904
sg10
I228763
sS'bonus_fraction'
p1078
F0.6824577274309334
sS'loan_advances_fraction'
p1079
g5
sS'other_fraction'
p1080
F0.03911771864997729
sg14
I00
sS'salary_fraction'
p1081
F0.1997424859508494
sg16
I-125000
sg17
S'george.mcclellan@enron.com'
p1082
sg19
g7
sS'director_fees_fraction'
p1083
g5
sg21
g7
sg22
I1469
sg23
g7
sg24
I49
sg25
I51587
sg26
g7
sS'deferral_payments_fraction'
p1084
g5
sS'deferred_income_fraction'
p1085
F-0.09478579547651853
sg29
I900000
sg30
F0.02981651376146789
sg31
I947861
sg32
I52
sg33
I0
sg34
I441096
sg35
I263413
sS'restricted_stock_deferred_fraction'
p1086
g5
sg37
I1318763
sS'expenses_fraction'
p1087
F0.17346786344475845
sg39
I506765
sS'long_term_incentive_fraction'
p1088
g5
ssS'HERMANN ROBERT J'
p1089
(dp1090
g3
g7
sS'exercised_stock_options_fraction'
p1091
F0.2806331682960852
sg6
g7
sg8
g5
sS'restricted_stock_fraction'
p1092
F0.7193668317039148
sg10
I48357
sS'bonus_fraction'
p1093
F0.5395152532523135
sS'loan_advances_fraction'
p1094
g5
sS'other_fraction'
p1095
F0.32096610225663813
sg14
I00
sS'salary_fraction'
p1096
F0.20244384995001777
sg16
I-280000
sg17
S'robert.hermann@enron.com'
p1097
sg19
I150000
sS'director_fees_fraction'
p1098
g5
sg21
g7
sg22
g7
sg23
g7
sg24
g7
sg25
I416441
sg26
g7
sS'deferral_payments_fraction'
p1099
g5
sS'deferred_income_fraction'
p1100
F-0.21580610130092542
sg29
I700000
sg30
g5
sg31
I668132
sg32
g7
sg33
g7
sg34
I480632
sg35
I262663
sS'restricted_stock_deferred_fraction'
p1101
g5
sg37
I1297461
sS'expenses_fraction'
p1102
F0.0372704844307459
sg39
I187500
sS'long_term_incentive_fraction'
p1103
F0.11561041141121005
ssS'SCRIMSHAW MATTHEW'
p1104
(dp1105
g3
g7
sS'exercised_stock_options_fraction'
p1106
F1.0
sg6
g7
sg8
g5
sS'restricted_stock_fraction'
p1107
g5
sg10
g7
sS'bonus_fraction'
p1108
g5
sS'loan_advances_fraction'
p1109
g5
sS'other_fraction'
p1110
g5
sg14
I00
sS'salary_fraction'
p1111
g5
sg16
g7
sg17
S'matthew.scrimshaw@enron.com'
p1112
sg19
g7
sS'director_fees_fraction'
p1113
g5
sg21
g7
sg22
g7
sg23
g7
sg24
g7
sg25
g7
sg26
g7
sS'deferral_payments_fraction'
p1114
g5
sS'deferred_income_fraction'
p1115
g5
sg29
g7
sg30
g5
sg31
I759557
sg32
g7
sg33
g7
sg34
g7
sg35
g7
sS'restricted_stock_deferred_fraction'
p1116
g5
sg37
g7
sS'expenses_fraction'
p1117
g5
sg39
I759557
sS'long_term_incentive_fraction'
p1118
g5
ssS'GATHMANN WILLIAM D'
p1119
(dp1120
g3
g7
sS'exercised_stock_options_fraction'
p1121
F0.9015123164864087
sg6
g7
sg8
g5
sS'restricted_stock_fraction'
p1122
F0.13571421227947528
sg10
g7
sS'bonus_fraction'
p1123
g5
sS'loan_advances_fraction'
p1124
g5
sS'other_fraction'
p1125
g5
sg14
I00
sS'salary_fraction'
p1126
g5
sg16
g7
sg17
g7
sg19
g7
sS'director_fees_fraction'
p1127
g5
sg21
I-72419
sg22
g7
sg23
g7
sg24
g7
sg25
g7
sg26
g7
sS'deferral_payments_fraction'
p1128
g5
sS'deferred_income_fraction'
p1129
g5
sg29
g7
sg30
g5
sg31
I1945360
sg32
g7
sg33
g7
sg34
I264013
sg35
g7
sS'restricted_stock_deferred_fraction'
p1130
F-0.03722652876588395
sg37
g7
sS'expenses_fraction'
p1131
g5
sg39
I1753766
sS'long_term_incentive_fraction'
p1132
g5
ssS'HAEDICKE MARK E'
p1133
(dp1134
g3
I4009
sS'exercised_stock_options_fraction'
p1135
F0.7580059121348186
sg6
I2157527
sg8
F0.03142709943328181
sS'restricted_stock_fraction'
p1136
F0.6526869830928883
sg10
I76169
sS'bonus_fraction'
p1137
F0.29799964499172726
sS'loan_advances_fraction'
p1138
g5
sS'other_fraction'
p1139
F0.013573754264310137
sg14
I00
sS'salary_fraction'
p1140
F0.09694705841959127
sg16
I-934484
sg17
S'mark.haedicke@enron.com'
p1141
sg19
I983346
sS'director_fees_fraction'
p1142
g5
sg21
I-329825
sg22
I1847
sg23
g7
sg24
I1941
sg25
I52382
sg26
g7
sS'deferral_payments_fraction'
p1143
F0.5590802435304925
sS'deferred_income_fraction'
p1144
F-0.2421529567395211
sg29
I1150000
sg30
F0.04489897730107259
sg31
I803094
sg32
I180
sg33
I61
sg34
I524169
sg35
I374125
sS'restricted_stock_deferred_fraction'
p1145
F-0.41069289522770686
sg37
I3859065
sS'expenses_fraction'
p1146
F0.019737682573369456
sg39
I608750
sS'long_term_incentive_fraction'
p1147
F0.25481457296003046
ssS'BOWEN JR RAYMOND M'
p1148
(dp1149
g3
I1858
sS'exercised_stock_options_fraction'
p1150
g5
sg6
g7
sg8
F0.5555555555555556
sS'restricted_stock_fraction'
p1151
F1.0
sg10
I65907
sS'bonus_fraction'
p1152
F0.5056958205926081
sS'loan_advances_fraction'
p1153
g5
sS'other_fraction'
p1154
F0.000607209574207865
sg14
I01
sS'salary_fraction'
p1155
F0.10436100837994162
sg16
I-833
sg17
S'raymond.bowen@enron.com'
p1156
sg19
I974293
sS'director_fees_fraction'
p1157
g5
sg21
g7
sg22
I1593
sg23
g7
sg24
I27
sg25
I1621
sg26
g7
sS'deferral_payments_fraction'
p1158
g5
sS'deferred_income_fraction'
p1159
F-0.00031203305078047593
sg29
I1350000
sg30
F0.07534983853606028
sg31
I252055
sg32
I140
sg33
I15
sg34
I252055
sg35
I278601
sS'restricted_stock_deferred_fraction'
p1160
g5
sg37
I2669589
sS'expenses_fraction'
p1161
F0.024688069961331126
sg39
g7
sS'long_term_incentive_fraction'
p1162
F0.36495992454269177
ssS'GILLIS JOHN'
p1163
(dp1164
g3
g7
sS'exercised_stock_options_fraction'
p1165
F0.11446620193598861
sg6
g7
sg8
g5
sS'restricted_stock_fraction'
p1166
F0.8855337980640114
sg10
g7
sS'bonus_fraction'
p1167
g5
sS'loan_advances_fraction'
p1168
g5
sS'other_fraction'
p1169
g5
sg14
I00
sS'salary_fraction'
p1170
g5
sg16
g7
sg17
g7
sg19
g7
sS'director_fees_fraction'
p1171
g5
sg21
g7
sg22
g7
sg23
g7
sg24
g7
sg25
g7
sg26
g7
sS'deferral_payments_fraction'
p1172
g5
sS'deferred_income_fraction'
p1173
g5
sg29
g7
sg30
g5
sg31
I85641
sg32
g7
sg33
g7
sg34
I75838
sg35
g7
sS'restricted_stock_deferred_fraction'
p1174
g5
sg37
g7
sS'expenses_fraction'
p1175
g5
sg39
I9803
sS'long_term_incentive_fraction'
p1176
g5
ssS'FITZGERALD JAY L'
p1177
(dp1178
g3
I936
sS'exercised_stock_options_fraction'
p1179
F0.40984841195236227
sg6
g7
sg8
F0.5
sS'restricted_stock_fraction'
p1180
F0.5901515880476377
sg10
I23870
sS'bonus_fraction'
p1181
F0.24737482303865338
sS'loan_advances_fraction'
p1182
g5
sS'other_fraction'
p1183
F0.20172639355072633
sg14
I00
sS'salary_fraction'
p1184
F0.14076122180545456
sg16
g7
sg17
S'jay.fitzgerald@enron.com'
p1185
sg19
I556416
sS'director_fees_fraction'
p1186
g5
sg21
g7
sg22
I723
sg23
g7
sg24
I16
sg25
I285414
sg26
g7
sS'deferral_payments_fraction'
p1187
g5
sS'deferred_income_fraction'
p1188
g5
sg29
I350000
sg30
F0.0010683760683760685
sg31
I1621236
sg32
I1
sg33
I8
sg34
I956775
sg35
I199157
sS'restricted_stock_deferred_fraction'
p1189
g5
sg37
I1414857
sS'expenses_fraction'
p1190
F0.01687096293123616
sg39
I664461
sS'long_term_incentive_fraction'
p1191
F0.3932665986739296
ssS'MORAN MICHAEL P'
p1192
(dp1193
g3
I672
sS'exercised_stock_options_fraction'
p1194
F0.2692354651557151
sg6
g7
sg8
F0.0
sS'restricted_stock_fraction'
p1195
F0.7307645348442848
sg10
g7
sS'bonus_fraction'
p1196
g5
sS'loan_advances_fraction'
p1197
g5
sS'other_fraction'
p1198
g5
sg14
I00
sS'salary_fraction'
p1199
g5
sg16
g7
sg17
S'michael.moran@enron.com'
p1200
sg19
g7
sS'director_fees_fraction'
p1201
g5
sg21
g7
sg22
I127
sg23
g7
sg24
I19
sg25
g7
sg26
g7
sS'deferral_payments_fraction'
p1202
g5
sS'deferred_income_fraction'
p1203
g5
sg29
g7
sg30
F0.0
sg31
I221141
sg32
I0
sg33
I0
sg34
I161602
sg35
g7
sS'restricted_stock_deferred_fraction'
p1204
g5
sg37
g7
sS'expenses_fraction'
p1205
g5
sg39
I59539
sS'long_term_incentive_fraction'
p1206
g5
ssS'REDMOND BRIAN L'
p1207
(dp1208
g3
I1671
sS'exercised_stock_options_fraction'
p1209
F0.951676889314051
sg6
g7
sg8
F0.22171945701357465
sS'restricted_stock_fraction'
p1210
F0.048323110685949015
sg10
I14689
sS'bonus_fraction'
p1211
g5
sS'loan_advances_fraction'
p1212
g5
sS'other_fraction'
p1213
g5
sg14
I00
sS'salary_fraction'
p1214
F0.8682943449685732
sg16
g7
sg17
S'brian.redmond@enron.com'
p1215
sg19
g7
sS'director_fees_fraction'
p1216
g5
sg21
g7
sg22
I1063
sg23
g7
sg24
I221
sg25
g7
sg26
g7
sS'deferral_payments_fraction'
p1217
g5
sS'deferred_income_fraction'
p1218
g5
sg29
g7
sg30
F0.12208258527827648
sg31
I7890324
sg32
I204
sg33
I49
sg34
I381285
sg35
I96840
sS'restricted_stock_deferred_fraction'
p1219
g5
sg37
I111529
sS'expenses_fraction'
p1220
F0.1317056550314268
sg39
I7509039
sS'long_term_incentive_fraction'
p1221
g5
ssS'BAZELIDES PHILIP J'
p1222
(dp1223
g3
g7
sS'exercised_stock_options_fraction'
p1224
F1.0
sg6
I684694
sg8
g5
sS'restricted_stock_fraction'
p1225
g5
sg10
g7
sS'bonus_fraction'
p1226
g5
sS'loan_advances_fraction'
p1227
g5
sS'other_fraction'
p1228
F0.0010161183812792396
sg14
I00
sS'salary_fraction'
p1229
F0.0939595598835533
sg16
g7
sg17
g7
sg19
I93750
sS'director_fees_fraction'
p1230
g5
sg21
g7
sg22
g7
sg23
g7
sg24
g7
sg25
I874
sg26
g7
sS'deferral_payments_fraction'
p1231
F0.7960299301505809
sS'deferred_income_fraction'
p1232
g5
sg29
g7
sg30
g5
sg31
I1599641
sg32
g7
sg33
g7
sg34
g7
sg35
I80818
sS'restricted_stock_deferred_fraction'
p1233
g5
sg37
I860136
sS'expenses_fraction'
p1234
g5
sg39
I1599641
sS'long_term_incentive_fraction'
p1235
F0.10899439158458663
ssS'BELDEN TIMOTHY N'
p1236
(dp1237
g3
I7991
sS'exercised_stock_options_fraction'
p1238
F0.8581360487258093
sg6
I2144013
sg8
F0.2231404958677686
sS'restricted_stock_fraction'
p1239
F0.1418639512741907
sg10
I17355
sS'bonus_fraction'
p1240
F0.9542624640333864
sS'loan_advances_fraction'
p1241
g5
sS'other_fraction'
p1242
F0.03829737732272072
sg14
I01
sS'salary_fraction'
p1243
F0.03889738132153562
sg16
I-2334434
sg17
S'tim.belden@enron.com'
p1244
sg19
g7
sS'director_fees_fraction'
p1245
g5
sg21
g7
sg22
I5521
sg23
g7
sg24
I484
sg25
I210698
sg26
g7
sS'deferral_payments_fraction'
p1246
F0.38970505104850744
sS'deferred_income_fraction'
p1247
F-0.4243167933866872
sg29
I5249999
sg30
F0.028532098610937303
sg31
I1110705
sg32
I228
sg33
I108
sg34
I157569
sg35
I213999
sS'restricted_stock_deferred_fraction'
p1248
g5
sg37
I5501630
sS'expenses_fraction'
p1249
F0.003154519660536968
sg39
I953136
sS'long_term_incentive_fraction'
p1250
g5
ssS'DURAN WILLIAM D'
p1251
(dp1252
g3
I904
sS'exercised_stock_options_fraction'
p1253
F0.8847950222742259
sg6
g7
sg8
F0.25
sS'restricted_stock_fraction'
p1254
F0.11520497772577411
sg10
I25785
sS'bonus_fraction'
p1255
F0.3582922929416896
sS'loan_advances_fraction'
p1256
g5
sS'other_fraction'
p1257
F0.0007490697537767591
sg14
I00
sS'salary_fraction'
p1258
F0.10065242637929396
sg16
g7
sg17
S'w.duran@enron.com'
p1259
sg19
I1105218
sS'director_fees_fraction'
p1260
g5
sg21
g7
sg22
I599
sg23
g7
sg24
I12
sg25
I1568
sg26
g7
sS'deferral_payments_fraction'
p1261
g5
sS'deferred_income_fraction'
p1262
g5
sg29
I750000
sg30
F0.1172566371681416
sg31
I1640910
sg32
I106
sg33
I3
sg34
I189041
sg35
I210692
sS'restricted_stock_deferred_fraction'
p1263
g5
sg37
I2093263
sS'expenses_fraction'
p1264
F0.01231808903133529
sg39
I1451869
sS'long_term_incentive_fraction'
p1265
F0.5279881218939044
ssS'THORN TERENCE H'
p1266
(dp1267
g3
I266
sS'exercised_stock_options_fraction'
p1268
F0.9241727960254025
sg6
I16586
sg8
F0.0
sS'restricted_stock_fraction'
p1269
F0.07582720397459751
sg10
I46145
sS'bonus_fraction'
p1270
g5
sS'loan_advances_fraction'
p1271
g5
sS'other_fraction'
p1272
F0.4680756989115182
sg14
I00
sS'salary_fraction'
p1273
F0.24366917438419755
sg16
g7
sg17
S'terence.thorn@enron.com'
p1274
sg19
I200000
sS'director_fees_fraction'
p1275
g5
sg21
g7
sg22
I73
sg23
g7
sg24
I41
sg25
I426629
sg26
g7
sS'deferral_payments_fraction'
p1276
F0.018197317908877363
sS'deferred_income_fraction'
p1277
g5
sg29
g7
sg30
F0.0
sg31
I4817796
sg32
I0
sg33
I0
sg34
I365320
sg35
I222093
sS'restricted_stock_deferred_fraction'
p1278
g5
sg37
I911453
sS'expenses_fraction'
p1279
F0.050627953388710116
sg39
I4452476
sS'long_term_incentive_fraction'
p1280
F0.21942985540669677
ssS'FASTOW ANDREW S'
p1281
(dp1282
g3
g7
sS'exercised_stock_options_fraction'
p1283
g5
sg6
g7
sg8
g5
sS'restricted_stock_fraction'
p1284
F1.0
sg10
I55921
sS'bonus_fraction'
p1285
F0.5362852674599013
sS'loan_advances_fraction'
p1286
g5
sS'other_fraction'
p1287
F0.11446142726961082
sg14
I01
sS'salary_fraction'
p1288
F0.1817998806146489
sg16
I-1386055
sg17
S'andrew.fastow@enron.com'
p1289
sg19
I1736055
sS'director_fees_fraction'
p1290
g5
sg21
g7
sg22
g7
sg23
g7
sg24
g7
sg25
I277464
sg26
g7
sS'deferral_payments_fraction'
p1291
g5
sS'deferred_income_fraction'
p1292
F-0.5717852895301028
sg29
I1300000
sg30
g5
sg31
I1794412
sg32
g7
sg33
g7
sg34
I1794412
sg35
I440698
sS'restricted_stock_deferred_fraction'
p1293
g5
sg37
I2424083
sS'expenses_fraction'
p1294
F0.02306892957048088
sg39
g7
sS'long_term_incentive_fraction'
p1295
F0.7161697846154608
ssS'FOY JOE'
p1296
(dp1297
g3
I57
sS'exercised_stock_options_fraction'
p1298
F1.0
sg6
I181755
sg8
F0.0
sS'restricted_stock_fraction'
p1299
g5
sg10
g7
sS'bonus_fraction'
p1300
g5
sS'loan_advances_fraction'
p1301
g5
sS'other_fraction'
p1302
g5
sg14
I00
sS'salary_fraction'
p1303
g5
sg16
g7
sg17
S'tracy.foy@enron.com'
p1304
sg19
g7
sS'director_fees_fraction'
p1305
g5
sg21
g7
sg22
I2
sg23
g7
sg24
I13
sg25
g7
sg26
g7
sS'deferral_payments_fraction'
p1306
F1.0
sS'deferred_income_fraction'
p1307
g5
sg29
g7
sg30
F0.0
sg31
I343434
sg32
I0
sg33
I0
sg34
g7
sg35
g7
sS'restricted_stock_deferred_fraction'
p1308
g5
sg37
I181755
sS'expenses_fraction'
p1309
g5
sg39
I343434
sS'long_term_incentive_fraction'
p1310
g5
ssS'CALGER CHRISTOPHER F'
p1311
(dp1312
g3
I2598
sS'exercised_stock_options_fraction'
p1313
g5
sg6
g7
sg8
F0.1736111111111111
sS'restricted_stock_fraction'
p1314
F1.0
sg10
I35818
sS'bonus_fraction'
p1315
F0.7625219835087845
sS'loan_advances_fraction'
p1316
g5
sS'other_fraction'
p1317
F0.00029646854718821546
sg14
I01
sS'salary_fraction'
p1318
F0.14651951415759315
sg16
I-262500
sg17
S'christopher.calger@enron.com'
p1319
sg19
I375304
sS'director_fees_fraction'
p1320
g5
sg21
g7
sg22
I2188
sg23
g7
sg24
I144
sg25
I486
sg26
g7
sS'deferral_payments_fraction'
p1321
g5
sS'deferred_income_fraction'
p1322
F-0.16012961653684477
sg29
I1250000
sg30
F0.07659738260200154
sg31
I126027
sg32
I199
sg33
I25
sg34
I126027
sg35
I240189
sS'restricted_stock_deferred_fraction'
p1323
g5
sg37
I1639297
sS'expenses_fraction'
p1324
F0.021849609924254117
sg39
g7
sS'long_term_incentive_fraction'
p1325
F0.22894204039902472
ssS'RICE KENNETH D'
p1326
(dp1327
g3
I905
sS'exercised_stock_options_fraction'
p1328
F0.8780809916753388
sg6
g7
sg8
F0.2222222222222222
sS'restricted_stock_fraction'
p1329
F0.12191900832466121
sg10
I46950
sS'bonus_fraction'
p1330
F3.465003465003465
sS'loan_advances_fraction'
p1331
g5
sS'other_fraction'
p1332
F0.3461815661815662
sg14
I01
sS'salary_fraction'
p1333
F0.8328601128601129
sg16
I-3504386
sg17
S'ken.rice@enron.com'
p1334
sg19
I1617011
sS'director_fees_fraction'
p1335
g5
sg21
g7
sg22
I864
sg23
g7
sg24
I18
sg25
I174839
sg26
g7
sS'deferral_payments_fraction'
p1336
g5
sS'deferred_income_fraction'
p1337
F-6.938691218691218
sg29
I1750000
sg30
F0.04640883977900553
sg31
I22542539
sg32
I42
sg33
I4
sg34
I2748364
sg35
I420636
sS'restricted_stock_deferred_fraction'
p1338
g5
sg37
I505050
sS'expenses_fraction'
p1339
F0.09296109296109296
sg39
I19794175
sS'long_term_incentive_fraction'
p1340
F3.2016849816849815
ssS'KAMINSKI WINCENTY J'
p1341
(dp1342
g3
I4607
sS'exercised_stock_options_fraction'
p1343
F0.8708788703706929
sg6
g7
sg8
F0.011901447661469933
sS'restricted_stock_fraction'
p1344
F0.12912112962930708
sg10
I83585
sS'bonus_fraction'
p1345
F0.368045887961311
sS'loan_advances_fraction'
p1346
g5
sS'other_fraction'
p1347
F0.004296015627228403
sg14
I00
sS'salary_fraction'
p1348
F0.2531244795601116
sg16
g7
sg17
S'vince.kaminski@enron.com'
p1349
sg19
I323466
sS'director_fees_fraction'
p1350
g5
sg21
g7
sg22
I583
sg23
g7
sg24
I14368
sg25
I4669
sg26
g7
sS'deferral_payments_fraction'
p1351
g5
sS'deferred_income_fraction'
p1352
g5
sg29
I400000
sg30
F0.008899500759713479
sg31
I976037
sg32
I41
sg33
I171
sg34
I126027
sg35
I275101
sS'restricted_stock_deferred_fraction'
p1353
g5
sg37
I1086821
sS'expenses_fraction'
p1354
F0.07690778886311546
sg39
I850010
sS'long_term_incentive_fraction'
p1355
F0.29762582798823356
ssS'COX DAVID'
p1356
(dp1357
g3
I102
sS'exercised_stock_options_fraction'
p1358
F0.23717347311417925
sg6
g7
sg8
F0.12121212121212122
sS'restricted_stock_fraction'
p1359
F0.7628265268858208
sg10
I27861
sS'bonus_fraction'
p1360
F0.7263529003725282
sS'loan_advances_fraction'
p1361
g5
sS'other_fraction'
p1362
F0.0004485229159800362
sg14
I00
sS'salary_fraction'
p1363
F0.28535500044035145
sg16
I-41250
sg17
S'chip.cox@enron.com'
p1364
sg19
g7
sS'director_fees_fraction'
p1365
g5
sg21
g7
sg22
I71
sg23
g7
sg24
I33
sg25
I494
sg26
g7
sS'deferral_payments_fraction'
p1366
g5
sS'deferred_income_fraction'
p1367
F-0.037452571425458485
sg29
I800000
sg30
F0.0
sg31
I495633
sg32
I0
sg33
I4
sg34
I378082
sg35
I314288
sS'restricted_stock_deferred_fraction'
p1368
g5
sg37
I1101393
sS'expenses_fraction'
p1369
F0.025296147696598763
sg39
I117551
sS'long_term_incentive_fraction'
p1370
g5
ssS'OVERDYKE JR JERE C'
p1371
(dp1372
g3
g7
sS'exercised_stock_options_fraction'
p1373
F0.7206993163550137
sg6
g7
sg8
g5
sS'restricted_stock_fraction'
p1374
F0.2793006836449863
sg10
I18834
sS'bonus_fraction'
p1375
g5
sS'loan_advances_fraction'
p1376
g5
sS'other_fraction'
p1377
F0.0007046003194721903
sg14
I00
sS'salary_fraction'
p1378
F0.38008783483527964
sg16
g7
sg17
S'jere.overdyke@enron.com'
p1379
sg19
I135836
sS'director_fees_fraction'
p1380
g5
sg21
g7
sg22
g7
sg23
g7
sg24
g7
sg25
I176
sg26
g7
sS'deferral_payments_fraction'
p1381
g5
sS'deferred_income_fraction'
p1382
g5
sg29
g7
sg30
g5
sg31
I7307594
sg32
g7
sg33
g7
sg34
I2041016
sg35
I94941
sS'restricted_stock_deferred_fraction'
p1383
g5
sg37
I249787
sS'expenses_fraction'
p1384
F0.07540024100533654
sg39
I5266578
sS'long_term_incentive_fraction'
p1385
F0.5438073238399116
ssS'PEREIRA PAULO V. FERRAZ'
p1386
(dp1387
g3
g7
sS'exercised_stock_options_fraction'
p1388
g5
sg6
g7
sg8
g5
sS'restricted_stock_fraction'
p1389
g5
sg10
I27942
sS'bonus_fraction'
p1390
g5
sS'loan_advances_fraction'
p1391
g5
sS'other_fraction'
p1392
g5
sg14
I00
sS'salary_fraction'
p1393
g5
sg16
I-101250
sg17
g7
sg19
g7
sS'director_fees_fraction'
p1394
F3.623577410350011
sg21
g7
sg22
g7
sg23
g7
sg24
g7
sg25
g7
sg26
I101250
sS'deferral_payments_fraction'
p1395
g5
sS'deferred_income_fraction'
p1396
F-3.623577410350011
sg29
g7
sg30
g5
sg31
g7
sg32
g7
sg33
g7
sg34
g7
sg35
g7
sS'restricted_stock_deferred_fraction'
p1397
g5
sg37
I27942
sS'expenses_fraction'
p1398
F1.0
sg39
g7
sS'long_term_incentive_fraction'
p1399
g5
ssS'STABLER FRANK'
p1400
(dp1401
g3
g7
sS'exercised_stock_options_fraction'
p1402
g5
sg6
g7
sg8
g5
sS'restricted_stock_fraction'
p1403
F1.0
sg10
I16514
sS'bonus_fraction'
p1404
F0.44960511183027946
sS'loan_advances_fraction'
p1405
g5
sS'other_fraction'
p1406
F0.3201826835490389
sg14
I00
sS'salary_fraction'
p1407
F0.21536264698715119
sg16
g7
sg17
S'frank.stabler@enron.com'
p1408
sg19
g7
sS'director_fees_fraction'
p1409
g5
sg21
g7
sg22
g7
sg23
g7
sg24
g7
sg25
I356071
sg26
g7
sS'deferral_payments_fraction'
p1410
g5
sS'deferred_income_fraction'
p1411
g5
sg29
I500000
sg30
g5
sg31
I511734
sg32
g7
sg33
g7
sg34
I511734
sg35
I239502
sS'restricted_stock_deferred_fraction'
p1412
g5
sg37
I1112087
sS'expenses_fraction'
p1413
F0.01484955763353047
sg39
g7
sS'long_term_incentive_fraction'
p1414
g5
ssS'SKILLING JEFFREY K'
p1415
(dp1416
g3
I3627
sS'exercised_stock_options_fraction'
p1417
F0.7377267561269261
sg6
g7
sg8
F0.2777777777777778
sS'restricted_stock_fraction'
p1418
F0.2622732438730739
sg10
I29336
sS'bonus_fraction'
p1419
F0.6449594804206426
sS'loan_advances_fraction'
p1420
g5
sS'other_fraction'
p1421
F0.002547820290333117
sg14
I01
sS'salary_fraction'
p1422
F0.12798506826665756
sg16
g7
sg17
S'jeff.skilling@enron.com'
p1423
sg19
I1920000
sS'director_fees_fraction'
p1424
g5
sg21
g7
sg22
I2042
sg23
g7
sg24
I108
sg25
I22122
sg26
g7
sS'deferral_payments_fraction'
p1425
g5
sS'deferred_income_fraction'
p1426
g5
sg29
I5600000
sg30
F0.0242624758753791
sg31
I26093672
sg32
I88
sg33
I30
sg34
I6843672
sg35
I1111258
sS'restricted_stock_deferred_fraction'
p1427
g5
sg37
I8682716
sS'expenses_fraction'
p1428
F0.003378666306717852
sg39
I19250000
sS'long_term_incentive_fraction'
p1429
F0.22112896471564888
ssS'BLAKE JR. NORMAN P'
p1430
(dp1431
g3
g7
sS'exercised_stock_options_fraction'
p1432
g5
sg6
g7
sg8
g5
sS'restricted_stock_fraction'
p1433
g5
sg10
I1279
sS'bonus_fraction'
p1434
g5
sS'loan_advances_fraction'
p1435
g5
sS'other_fraction'
p1436
g5
sg14
I00
sS'salary_fraction'
p1437
g5
sg16
I-113784
sg17
g7
sg19
g7
sS'director_fees_fraction'
p1438
F88.9632525410477
sg21
g7
sg22
g7
sg23
g7
sg24
g7
sg25
g7
sg26
I113784
sS'deferral_payments_fraction'
p1439
g5
sS'deferred_income_fraction'
p1440
F-88.9632525410477
sg29
g7
sg30
g5
sg31
g7
sg32
g7
sg33
g7
sg34
g7
sg35
g7
sS'restricted_stock_deferred_fraction'
p1441
g5
sg37
I1279
sS'expenses_fraction'
p1442
F1.0
sg39
g7
sS'long_term_incentive_fraction'
p1443
g5
ssS'SHERRICK JEFFREY B'
p1444
(dp1445
g3
I613
sS'exercised_stock_options_fraction'
p1446
F0.7784414243522942
sg6
g7
sg8
F0.72
sS'restricted_stock_fraction'
p1447
F0.22155857564770573
sg10
g7
sS'bonus_fraction'
p1448
g5
sS'loan_advances_fraction'
p1449
g5
sS'other_fraction'
p1450
g5
sg14
I00
sS'salary_fraction'
p1451
g5
sg16
g7
sg17
S'jeffrey.sherrick@enron.com'
p1452
sg19
g7
sS'director_fees_fraction'
p1453
g5
sg21
g7
sg22
I583
sg23
g7
sg24
I25
sg25
g7
sg26
g7
sS'deferral_payments_fraction'
p1454
g5
sS'deferred_income_fraction'
p1455
g5
sg29
g7
sg30
F0.0636215334420881
sg31
I1832468
sg32
I39
sg33
I18
sg34
I405999
sg35
g7
sS'restricted_stock_deferred_fraction'
p1456
g5
sg37
g7
sS'expenses_fraction'
p1457
g5
sg39
I1426469
sS'long_term_incentive_fraction'
p1458
g5
ssS'PRENTICE JAMES'
p1459
(dp1460
g3
g7
sS'exercised_stock_options_fraction'
p1461
F0.8093138150204559
sg6
I564348
sg8
g5
sS'restricted_stock_fraction'
p1462
F0.19068618497954412
sg10
g7
sS'bonus_fraction'
p1463
g5
sS'loan_advances_fraction'
p1464
g5
sS'other_fraction'
p1465
g5
sg14
I00
sS'salary_fraction'
p1466
g5
sg16
g7
sg17
S'james.prentice@enron.com'
p1467
sg19
g7
sS'director_fees_fraction'
p1468
g5
sg21
g7
sg22
g7
sg23
g7
sg24
g7
sg25
g7
sg26
g7
sS'deferral_payments_fraction'
p1469
F1.0
sS'deferred_income_fraction'
p1470
g5
sg29
g7
sg30
g5
sg31
I1095040
sg32
g7
sg33
g7
sg34
I208809
sg35
g7
sS'restricted_stock_deferred_fraction'
p1471
g5
sg37
I564348
sS'expenses_fraction'
p1472
g5
sg39
I886231
sS'long_term_incentive_fraction'
p1473
g5
ssS'GRAY RODNEY'
p1474
(dp1475
g3
g7
sS'exercised_stock_options_fraction'
p1476
g5
sg6
I93585
sg8
g5
sS'restricted_stock_fraction'
p1477
g5
sg10
g7
sS'bonus_fraction'
p1478
g5
sS'loan_advances_fraction'
p1479
g5
sS'other_fraction'
p1480
F0.5937541969793958
sg14
I00
sS'salary_fraction'
p1481
F0.005768938951282772
sg16
g7
sg17
g7
sg19
I365625
sS'director_fees_fraction'
p1482
g5
sg21
g7
sg22
g7
sg23
g7
sg24
g7
sg25
I680833
sg26
g7
sS'deferral_payments_fraction'
p1483
F0.08161544244229753
sS'deferred_income_fraction'
p1484
g5
sg29
g7
sg30
g5
sg31
g7
sg32
g7
sg33
g7
sg34
g7
sg35
I6615
sS'restricted_stock_deferred_fraction'
p1485
g5
sg37
I1146658
sS'expenses_fraction'
p1486
g5
sg39
g7
sS'long_term_incentive_fraction'
p1487
F0.3188614216270239
ssS'PICKERING MARK R'
p1488
(dp1489
g3
I898
sS'exercised_stock_options_fraction'
p1490
F1.0
sg6
g7
sg8
F0.0
sS'restricted_stock_fraction'
p1491
g5
sg10
I31653
sS'bonus_fraction'
p1492
F0.21634251346732147
sS'loan_advances_fraction'
p1493
F0.28845668462309526
sS'other_fraction'
p1494
g5
sg14
I00
sS'salary_fraction'
p1495
F0.47237450331364617
sg16
g7
sg17
S'mark.pickering@enron.com'
p1496
sg19
g7
sS'director_fees_fraction'
p1497
g5
sg21
g7
sg22
I728
sg23
I400000
sg24
I67
sg25
g7
sg26
g7
sS'deferral_payments_fraction'
p1498
g5
sS'deferred_income_fraction'
p1499
g5
sg29
I300000
sg30
F0.0077951002227171495
sg31
I28798
sg32
I7
sg33
I0
sg34
g7
sg35
I655037
sS'restricted_stock_deferred_fraction'
p1500
g5
sg37
I1386690
sS'expenses_fraction'
p1501
F0.022826298595937086
sg39
I28798
sS'long_term_incentive_fraction'
p1502
g5
ssS'NOLES JAMES L'
p1503
(dp1504
g3
g7
sS'exercised_stock_options_fraction'
p1505
g5
sg6
I774401
sg8
g5
sS'restricted_stock_fraction'
p1506
F1.2564543469711558
sg10
g7
sS'bonus_fraction'
p1507
g5
sS'loan_advances_fraction'
p1508
g5
sS'other_fraction'
p1509
g5
sg14
I00
sS'salary_fraction'
p1510
g5
sg16
g7
sg17
g7
sg19
g7
sS'director_fees_fraction'
p1511
g5
sg21
I-94556
sg22
g7
sg23
g7
sg24
g7
sg25
g7
sg26
g7
sS'deferral_payments_fraction'
p1512
F1.0
sS'deferred_income_fraction'
p1513
g5
sg29
g7
sg30
g5
sg31
I368705
sg32
g7
sg33
g7
sg34
I463261
sg35
g7
sS'restricted_stock_deferred_fraction'
p1514
F-0.2564543469711558
sg37
I774401
sS'expenses_fraction'
p1515
g5
sg39
g7
sS'long_term_incentive_fraction'
p1516
g5
ssS'KEAN STEVEN J'
p1517
(dp1518
g3
I12754
sS'exercised_stock_options_fraction'
p1519
F0.32859370109603386
sg6
g7
sg8
F0.05725699067909454
sS'restricted_stock_fraction'
p1520
F0.6714062989039662
sg10
I41953
sS'bonus_fraction'
p1521
F0.5722388616566773
sS'loan_advances_fraction'
p1522
g5
sS'other_fraction'
p1523
F0.0007044260386993697
sg14
I00
sS'salary_fraction'
p1524
F0.23137791684453757
sg16
g7
sg17
S'steven.kean@enron.com'
p1525
sg19
I300000
sS'director_fees_fraction'
p1526
g5
sg21
g7
sg22
I3639
sg23
g7
sg24
I6759
sg25
I1231
sg26
g7
sS'deferral_payments_fraction'
p1527
g5
sS'deferred_income_fraction'
p1528
g5
sg29
I1000000
sg30
F0.010976948408342482
sg31
I6153642
sg32
I140
sg33
I387
sg34
I4131594
sg35
I404338
sS'restricted_stock_deferred_fraction'
p1529
g5
sg37
I1747522
sS'expenses_fraction'
p1530
F0.02400713696308258
sg39
I2022048
sS'long_term_incentive_fraction'
p1531
F0.1716716584970032
ssS'FOWLER PEGGY'
p1532
(dp1533
g3
I517
sS'exercised_stock_options_fraction'
p1534
F0.7027878528057863
sg6
g7
sg8
F0.0
sS'restricted_stock_fraction'
p1535
F0.29721214719421374
sg10
g7
sS'bonus_fraction'
p1536
g5
sS'loan_advances_fraction'
p1537
g5
sS'other_fraction'
p1538
g5
sg14
I00
sS'salary_fraction'
p1539
g5
sg16
g7
sg17
S'kulvinder.fowler@enron.com'
p1540
sg19
g7
sS'director_fees_fraction'
p1541
g5
sg21
g7
sg22
I10
sg23
g7
sg24
I36
sg25
g7
sg26
g7
sS'deferral_payments_fraction'
p1542
g5
sS'deferred_income_fraction'
p1543
g5
sg29
g7
sg30
F0.0
sg31
I1884748
sg32
I0
sg33
I0
sg34
I560170
sg35
g7
sS'restricted_stock_deferred_fraction'
p1544
g5
sg37
g7
sS'expenses_fraction'
p1545
g5
sg39
I1324578
sS'long_term_incentive_fraction'
p1546
g5
ssS'WASAFF GEORGE'
p1547
(dp1548
g3
I400
sS'exercised_stock_options_fraction'
p1549
F0.8112420231790382
sg6
I831299
sg8
F0.23333333333333334
sS'restricted_stock_fraction'
p1550
F0.1887579768209618
sg10
g7
sS'bonus_fraction'
p1551
F0.3141933207333755
sS'loan_advances_fraction'
p1552
g5
sS'other_fraction'
p1553
F0.0013776168678309544
sg14
I00
sS'salary_fraction'
p1554
F0.2513507895919837
sg16
I-583325
sg17
S'george.wasaff@enron.com'
p1555
sg19
I200000
sS'director_fees_fraction'
p1556
g5
sg21
g7
sg22
I337
sg23
g7
sg24
I30
sg25
I1425
sg26
g7
sS'deferral_payments_fraction'
p1557
F0.8036572102533365
sS'deferred_income_fraction'
p1558
F-0.5639286732824501
sg29
I325000
sg30
F0.055
sg31
I2056427
sg32
I22
sg33
I7
sg34
I388167
sg35
I259996
sS'restricted_stock_deferred_fraction'
p1559
g5
sg37
I1034395
sS'expenses_fraction'
p1560
g5
sg39
I1668260
sS'long_term_incentive_fraction'
p1561
F0.1933497358359234
ssS'WHITE JR THOMAS E'
p1562
(dp1563
g3
g7
sS'exercised_stock_options_fraction'
p1564
F0.08564701963923563
sg6
g7
sg8
g5
sS'restricted_stock_fraction'
p1565
F0.9143529803607644
sg10
I81353
sS'bonus_fraction'
p1566
F0.23263520370313887
sS'loan_advances_fraction'
p1567
g5
sS'other_fraction'
p1568
F0.5611486802604894
sg14
I00
sS'salary_fraction'
p1569
F0.1641592899766796
sg16
g7
sg17
S'thomas.white@enron.com'
p1570
sg19
g7
sS'director_fees_fraction'
p1571
g5
sg21
g7
sg22
g7
sg23
g7
sg24
g7
sg25
I1085463
sg26
g7
sS'deferral_payments_fraction'
p1572
g5
sS'deferred_income_fraction'
p1573
g5
sg29
I450000
sg30
g5
sg31
I15144123
sg32
g7
sg33
g7
sg34
I13847074
sg35
I317543
sS'restricted_stock_deferred_fraction'
p1574
g5
sg37
I1934359
sS'expenses_fraction'
p1575
F0.042056826059692125
sg39
I1297049
sS'long_term_incentive_fraction'
p1576
g5
ssS'CHRISTODOULOU DIOMEDES'
p1577
(dp1578
g3
g7
sS'exercised_stock_options_fraction'
p1579
F0.8435755201027989
sg6
g7
sg8
g5
sS'restricted_stock_fraction'
p1580
F0.15642447989720107
sg10
g7
sS'bonus_fraction'
p1581
g5
sS'loan_advances_fraction'
p1582
g5
sS'other_fraction'
p1583
g5
sg14
I00
sS'salary_fraction'
p1584
g5
sg16
g7
sg17
S'diomedes.christodoulou@enron.com'
p1585
sg19
g7
sS'director_fees_fraction'
p1586
g5
sg21
g7
sg22
g7
sg23
g7
sg24
g7
sg25
g7
sg26
g7
sS'deferral_payments_fraction'
p1587
g5
sS'deferred_income_fraction'
p1588
g5
sg29
g7
sg30
g5
sg31
I6077885
sg32
g7
sg33
g7
sg34
I950730
sg35
g7
sS'restricted_stock_deferred_fraction'
p1589
g5
sg37
g7
sS'expenses_fraction'
p1590
g5
sg39
I5127155
sS'long_term_incentive_fraction'
p1591
g5
ssS'ALLEN PHILLIP K'
p1592
(dp1593
g3
I2902
sS'exercised_stock_options_fraction'
p1594
F1.0
sg6
I2869717
sg8
F0.029612756264236904
sS'restricted_stock_fraction'
p1595
F0.07286730988163911
sg10
I13868
sS'bonus_fraction'
p1596
F0.9309965431596617
sS'loan_advances_fraction'
p1597
g5
sS'other_fraction'
p1598
F3.38949639665314e-05
sg14
I00
sS'salary_fraction'
p1599
F0.04503458847276874
sg16
I-3081055
sg17
S'phillip.allen@enron.com'
p1600
sg19
I304805
sS'director_fees_fraction'
p1601
g5
sg21
I-126027
sg22
I1407
sg23
g7
sg24
I2195
sg25
I152
sg26
g7
sS'deferral_payments_fraction'
p1602
F0.6399273309812012
sS'deferred_income_fraction'
p1603
F-0.6870542644993514
sg29
I4175000
sg30
F0.016195727084769126
sg31
I1729541
sg32
I47
sg33
I65
sg34
I126027
sg35
I201955
sS'restricted_stock_deferred_fraction'
p1604
F-0.07286730988163911
sg37
I4484442
sS'expenses_fraction'
p1605
F0.0030924694755780093
sg39
I1729541
sS'long_term_incentive_fraction'
p1606
F0.06796943744617502
ssS'SHARP VICTORIA T'
p1607
(dp1608
g3
I3136
sS'exercised_stock_options_fraction'
p1609
F0.5688170867939191
sg6
I187469
sg8
F0.04411764705882353
sS'restricted_stock_fraction'
p1610
F0.43118291320608093
sg10
I116337
sS'bonus_fraction'
p1611
F0.38058725882661143
sS'loan_advances_fraction'
p1612
g5
sS'other_fraction'
p1613
F0.00152298334740449
sg14
I00
sS'salary_fraction'
p1614
F0.15740200988131386
sg16
g7
sg17
S'vicki.sharp@enron.com'
p1615
sg19
I422158
sS'director_fees_fraction'
p1616
g5
sg21
g7
sg22
I2477
sg23
g7
sg24
I136
sg25
I2401
sg26
g7
sS'deferral_payments_fraction'
p1617
F0.1189138547082767
sS'deferred_income_fraction'
p1618
g5
sg29
I600000
sg30
F0.007653061224489796
sg31
I494136
sg32
I24
sg33
I6
sg34
I213063
sg35
I248146
sS'restricted_stock_deferred_fraction'
p1619
g5
sg37
I1576511
sS'expenses_fraction'
p1620
F0.07379396655018582
sg39
I281073
sS'long_term_incentive_fraction'
p1621
F0.2677799266862077
ssS'JAEDICKE ROBERT'
p1622
(dp1623
g3
g7
sS'exercised_stock_options_fraction'
p1624
F1.0
sg6
g7
sg8
g5
sS'restricted_stock_fraction'
p1625
F0.10212623045744065
sg10
g7
sS'bonus_fraction'
p1626
g5
sS'loan_advances_fraction'
p1627
g5
sS'other_fraction'
p1628
g5
sg14
I00
sS'salary_fraction'
p1629
g5
sg16
I-25000
sg17
g7
sg19
g7
sS'director_fees_fraction'
p1630
F1.2985074626865671
sg21
I-44093
sg22
g7
sg23
g7
sg24
g7
sg25
g7
sg26
I108750
sS'deferral_payments_fraction'
p1631
g5
sS'deferred_income_fraction'
p1632
F-0.29850746268656714
sg29
g7
sg30
g5
sg31
I431750
sg32
g7
sg33
g7
sg34
I44093
sg35
g7
sS'restricted_stock_deferred_fraction'
p1633
F-0.10212623045744065
sg37
I83750
sS'expenses_fraction'
p1634
g5
sg39
I431750
sS'long_term_incentive_fraction'
p1635
g5
ssS'WINOKUR JR. HERBERT S'
p1636
(dp1637
g3
g7
sS'exercised_stock_options_fraction'
p1638
g5
sg6
g7
sg8
g5
sS'restricted_stock_fraction'
p1639
g5
sg10
I1413
sS'bonus_fraction'
p1640
g5
sS'loan_advances_fraction'
p1641
g5
sS'other_fraction'
p1642
g5
sg14
I00
sS'salary_fraction'
p1643
g5
sg16
I-25000
sg17
g7
sg19
g7
sS'director_fees_fraction'
p1644
F1.2775202371987953
sg21
g7
sg22
g7
sg23
g7
sg24
g7
sg25
g7
sg26
I108579
sS'deferral_payments_fraction'
p1645
g5
sS'deferred_income_fraction'
p1646
F-0.2941453313253012
sg29
g7
sg30
g5
sg31
g7
sg32
g7
sg33
g7
sg34
g7
sg35
g7
sS'restricted_stock_deferred_fraction'
p1647
g5
sg37
I84992
sS'expenses_fraction'
p1648
F0.016625094126506024
sg39
g7
sS'long_term_incentive_fraction'
p1649
g5
ssS'BROWN MICHAEL'
p1650
(dp1651
g3
I1486
sS'exercised_stock_options_fraction'
p1652
g5
sg6
g7
sg8
F0.024390243902439025
sS'restricted_stock_fraction'
p1653
g5
sg10
I49288
sS'bonus_fraction'
p1654
g5
sS'loan_advances_fraction'
p1655
g5
sS'other_fraction'
p1656
g5
sg14
I00
sS'salary_fraction'
p1657
g5
sg16
g7
sg17
S'michael.brown@enron.com'
p1658
sg19
g7
sS'director_fees_fraction'
p1659
g5
sg21
g7
sg22
I761
sg23
g7
sg24
I41
sg25
g7
sg26
g7
sS'deferral_payments_fraction'
p1660
g5
sS'deferred_income_fraction'
p1661
g5
sg29
g7
sg30
F0.008748317631224764
sg31
g7
sg32
I13
sg33
I1
sg34
g7
sg35
g7
sS'restricted_stock_deferred_fraction'
p1662
g5
sg37
I49288
sS'expenses_fraction'
p1663
F1.0
sg39
g7
sS'long_term_incentive_fraction'
p1664
g5
ssS'BADUM JAMES P'
p1665
(dp1666
g3
g7
sS'exercised_stock_options_fraction'
p1667
F1.0
sg6
I178980
sg8
g5
sS'restricted_stock_fraction'
p1668
g5
sg10
I3486
sS'bonus_fraction'
p1669
g5
sS'loan_advances_fraction'
p1670
g5
sS'other_fraction'
p1671
g5
sg14
I00
sS'salary_fraction'
p1672
g5
sg16
g7
sg17
g7
sg19
g7
sS'director_fees_fraction'
p1673
g5
sg21
g7
sg22
g7
sg23
g7
sg24
g7
sg25
g7
sg26
g7
sS'deferral_payments_fraction'
p1674
F0.9808950708625168
sS'deferred_income_fraction'
p1675
g5
sg29
g7
sg30
g5
sg31
I257817
sg32
g7
sg33
g7
sg34
g7
sg35
g7
sS'restricted_stock_deferred_fraction'
p1676
g5
sg37
I182466
sS'expenses_fraction'
p1677
F0.019104929137483146
sg39
I257817
sS'long_term_incentive_fraction'
p1678
g5
ssS'HUGHES JAMES A'
p1679
(dp1680
g3
I719
sS'exercised_stock_options_fraction'
p1681
F0.6750447516706992
sg6
g7
sg8
F0.14705882352941177
sS'restricted_stock_fraction'
p1682
F0.3249552483293008
sg10
g7
sS'bonus_fraction'
p1683
g5
sS'loan_advances_fraction'
p1684
g5
sS'other_fraction'
p1685
g5
sg14
I00
sS'salary_fraction'
p1686
g5
sg16
g7
sg17
S'james.hughes@enron.com'
p1687
sg19
g7
sS'director_fees_fraction'
p1688
g5
sg21
g7
sg22
I589
sg23
g7
sg24
I34
sg25
g7
sg26
g7
sS'deferral_payments_fraction'
p1689
g5
sS'deferred_income_fraction'
p1690
g5
sg29
g7
sg30
F0.048678720445062586
sg31
I1118394
sg32
I35
sg33
I5
sg34
I363428
sg35
g7
sS'restricted_stock_deferred_fraction'
p1691
g5
sg37
g7
sS'expenses_fraction'
p1692
g5
sg39
I754966
sS'long_term_incentive_fraction'
p1693
g5
ssS'REYNOLDS LAWRENCE'
p1694
(dp1695
g3
g7
sS'exercised_stock_options_fraction'
p1696
F0.9854996256416853
sg6
I51365
sg8
g5
sS'restricted_stock_fraction'
p1697
F0.047723401670009956
sg10
I8409
sS'bonus_fraction'
p1698
F0.2535014893212498
sS'loan_advances_fraction'
p1699
g5
sS'other_fraction'
p1700
F0.5122048292033715
sg14
I00
sS'salary_fraction'
p1701
F0.1936726028265416
sg16
I-200000
sg17
g7
sg19
I156250
sS'director_fees_fraction'
p1702
g5
sg21
I-140264
sg22
g7
sg23
g7
sg24
g7
sg25
I202052
sg26
g7
sS'deferral_payments_fraction'
p1703
F0.13021103998985994
sS'deferred_income_fraction'
p1704
F-0.5070029786424995
sg29
I100000
sg30
g5
sg31
I4221891
sg32
g7
sg33
g7
sg34
I201483
sg35
I76399
sS'restricted_stock_deferred_fraction'
p1705
F-0.033223027311695165
sg37
I394475
sS'expenses_fraction'
p1706
F0.021316940237023893
sg39
I4160672
sS'long_term_incentive_fraction'
p1707
F0.39609607706445277
ssS'DIMICHELE RICHARD G'
p1708
(dp1709
g3
g7
sS'exercised_stock_options_fraction'
p1710
F0.9848484848484849
sg6
g7
sg8
g5
sS'restricted_stock_fraction'
p1711
F0.015151515151515152
sg10
I35812
sS'bonus_fraction'
p1712
F0.42227037042823706
sS'loan_advances_fraction'
p1713
g5
sS'other_fraction'
p1714
F0.1582200628253857
sg14
I00
sS'salary_fraction'
p1715
F0.11096758610409556
sg16
g7
sg17
S'richard.dimichele@enron.com'
p1716
sg19
I694862
sS'director_fees_fraction'
p1717
g5
sg21
g7
sg22
g7
sg23
g7
sg24
g7
sg25
I374689
sg26
g7
sS'deferral_payments_fraction'
p1718
g5
sS'deferred_income_fraction'
p1719
g5
sg29
I1000000
sg30
g5
sg31
I8317782
sg32
g7
sg33
g7
sg34
I126027
sg35
I262788
sS'restricted_stock_deferred_fraction'
p1720
g5
sg37
I2368151
sS'expenses_fraction'
p1721
F0.015122346505776025
sg39
I8191755
sS'long_term_incentive_fraction'
p1722
F0.2934196341365057
ssS'BHATNAGAR SANJAY'
p1723
(dp1724
g3
I523
sS'exercised_stock_options_fraction'
p1725
g5
sg6
g7
sg8
F0.034482758620689655
sS'restricted_stock_fraction'
p1726
g5
sg10
g7
sS'bonus_fraction'
p1727
g5
sS'loan_advances_fraction'
p1728
g5
sS'other_fraction'
p1729
F0.00891960489871761
sg14
I00
sS'salary_fraction'
p1730
g5
sg16
g7
sg17
S'sanjay.bhatnagar@enron.com'
p1731
sg19
g7
sS'director_fees_fraction'
p1732
F0.00891960489871761
sg21
I15456290
sg22
I463
sg23
g7
sg24
I29
sg25
I137864
sg26
I137864
sS'deferral_payments_fraction'
p1733
g5
sS'deferred_income_fraction'
p1734
g5
sg29
g7
sg30
F0.0
sS'total_stock_value'
p1735
S'NaN'
p1736
sg32
I0
sg33
I1
sg34
I-2604490
sg35
g7
sS'restricted_stock_deferred_fraction'
p1737
g5
sg37
I15456290
sS'expenses_fraction'
p1738
g5
sg39
I2604490
sS'long_term_incentive_fraction'
p1739
g5
ssS'CARTER REBECCA C'
p1740
(dp1741
g3
I312
sS'exercised_stock_options_fraction'
p1742
g5
sg6
g7
sg8
F0.4666666666666667
sS'restricted_stock_fraction'
p1743
g5
sg10
g7
sS'bonus_fraction'
p1744
F0.6281972623163308
sS'loan_advances_fraction'
p1745
g5
sS'other_fraction'
p1746
F0.0011307550721693955
sg14
I00
sS'salary_fraction'
p1747
F0.5482256568325875
sg16
I-159792
sg17
S'rebecca.carter@enron.com'
p1748
sg19
I75000
sS'director_fees_fraction'
p1749
g5
sg21
I-307301
sg22
I196
sg23
g7
sg24
I15
sg25
I540
sg26
g7
sS'deferral_payments_fraction'
p1750
g5
sS'deferred_income_fraction'
p1751
F-0.33460298980017045
sg29
I300000
sg30
F0.09294871794871795
sg31
g7
sg32
I29
sg33
I7
sg34
I307301
sg35
I261809
sS'restricted_stock_deferred_fraction'
p1752
g5
sg37
I477557
sS'expenses_fraction'
p1753
g5
sg39
g7
sS'long_term_incentive_fraction'
p1754
F0.1570493155790827
ssS'BUCHANAN HAROLD G'
p1755
(dp1756
g3
I1088
sS'exercised_stock_options_fraction'
p1757
F0.8136618350821336
sg6
g7
sg8
F0.0
sS'restricted_stock_fraction'
p1758
F0.18633816491786634
sg10
I600
sS'bonus_fraction'
p1759
F0.47409677453000415
sS'loan_advances_fraction'
p1760
g5
sS'other_fraction'
p1761
F0.0011520551621079101
sg14
I00
sS'salary_fraction'
p1762
F0.23516811945721608
sg16
g7
sg17
S'john.buchanan@enron.com'
p1763
sg19
I304805
sS'director_fees_fraction'
p1764
g5
sg21
g7
sg22
I23
sg23
g7
sg24
I125
sg25
I1215
sg26
g7
sS'deferral_payments_fraction'
p1765
g5
sS'deferred_income_fraction'
p1766
g5
sg29
I500000
sg30
F0.0
sg31
I1014505
sg32
I0
sg33
I0
sg34
I189041
sg35
I248017
sS'restricted_stock_deferred_fraction'
p1767
g5
sg37
I1054637
sS'expenses_fraction'
p1768
F0.000568916129436005
sg39
I825464
sS'long_term_incentive_fraction'
p1769
F0.2890141347212358
ssS'YEAP SOON'
p1770
(dp1771
g3
g7
sS'exercised_stock_options_fraction'
p1772
F1.0
sg6
g7
sg8
g5
sS'restricted_stock_fraction'
p1773
g5
sg10
I55097
sS'bonus_fraction'
p1774
g5
sS'loan_advances_fraction'
p1775
g5
sS'other_fraction'
p1776
g5
sg14
I00
sS'salary_fraction'
p1777
g5
sg16
g7
sg17
g7
sg19
g7
sS'director_fees_fraction'
p1778
g5
sg21
g7
sg22
g7
sg23
g7
sg24
g7
sg25
g7
sg26
g7
sS'deferral_payments_fraction'
p1779
g5
sS'deferred_income_fraction'
p1780
g5
sg29
g7
sg30
g5
sg31
I192758
sg32
g7
sg33
g7
sg34
g7
sg35
g7
sS'restricted_stock_deferred_fraction'
p1781
g5
sg37
I55097
sS'expenses_fraction'
p1782
F1.0
sg39
I192758
sS'long_term_incentive_fraction'
p1783
g5
ssS'MURRAY JULIA H'
p1784
(dp1785
g3
I2192
sS'exercised_stock_options_fraction'
p1786
F0.6702998187329382
sg6
g7
sg8
F0.044444444444444446
sS'restricted_stock_fraction'
p1787
F0.3297001812670618
sg10
I57580
sS'bonus_fraction'
p1788
F0.4924931728133919
sS'loan_advances_fraction'
p1789
g5
sS'other_fraction'
p1790
F0.0004063068675710483
sg14
I00
sS'salary_fraction'
p1791
F0.2823020115883644
sg16
g7
sg17
S'julia.murray@enron.com'
p1792
sg19
I125000
sS'director_fees_fraction'
p1793
g5
sg21
g7
sg22
I395
sg23
g7
sg24
I45
sg25
I330
sg26
g7
sS'deferral_payments_fraction'
p1794
g5
sS'deferred_income_fraction'
p1795
g5
sg29
I400000
sg30
F0.005018248175182482
sg31
I597461
sg32
I11
sg33
I2
sg34
I196983
sg35
I229284
sS'restricted_stock_deferred_fraction'
p1796
g5
sg37
I812194
sS'expenses_fraction'
p1797
F0.07089439222648776
sg39
I400478
sS'long_term_incentive_fraction'
p1798
F0.15390411650418495
ssS'GARLAND C KEVIN'
p1799
(dp1800
g3
I209
sS'exercised_stock_options_fraction'
p1801
F0.7099747476156415
sg6
g7
sg8
F0.6136363636363636
sS'restricted_stock_fraction'
p1802
F0.2900252523843585
sg10
I48405
sS'bonus_fraction'
p1803
F0.5426216541789208
sS'loan_advances_fraction'
p1804
g5
sS'other_fraction'
p1805
F0.038822345032043404
sg14
I00
sS'salary_fraction'
p1806
F0.14806932023551056
sg16
g7
sg17
S'kevin.garland@enron.com'
p1807
sg19
I375304
sS'director_fees_fraction'
p1808
g5
sg21
g7
sg22
I178
sg23
g7
sg24
I44
sg25
I60814
sg26
g7
sS'deferral_payments_fraction'
p1809
g5
sS'deferred_income_fraction'
p1810
g5
sg29
I850000
sg30
F0.04784688995215311
sg31
I896153
sg32
I10
sg33
I27
sg34
I259907
sg35
I231946
sS'restricted_stock_deferred_fraction'
p1811
g5
sg37
I1566469
sS'expenses_fraction'
p1812
F0.03090070725944784
sg39
I636246
sS'long_term_incentive_fraction'
p1813
F0.23958597329407733
ssS'DODSON KEITH'
p1814
(dp1815
g3
I176
sS'exercised_stock_options_fraction'
p1816
g5
sg6
g7
sg8
F0.21428571428571427
sS'restricted_stock_fraction'
p1817
g5
sg10
I28164
sS'bonus_fraction'
p1818
F0.21879033946883958
sS'loan_advances_fraction'
p1819
g5
sS'other_fraction'
p1820
F0.0024191960392697404
sg14
I00
sS'salary_fraction'
p1821
F0.6907617341947422
sg16
g7
sg17
S'keith.dodson@enron.com'
p1822
sg19
g7
sS'director_fees_fraction'
p1823
g5
sg21
g7
sg22
I114
sg23
g7
sg24
I14
sg25
I774
sg26
g7
sS'deferral_payments_fraction'
p1824
g5
sS'deferred_income_fraction'
p1825
g5
sg29
I70000
sg30
F0.056818181818181816
sg31
g7
sg32
I10
sg33
I3
sg34
g7
sg35
I221003
sS'restricted_stock_deferred_fraction'
p1826
g5
sg37
I319941
sS'expenses_fraction'
p1827
F0.08802873029714854
sg39
g7
sS'long_term_incentive_fraction'
p1828
g5
ssS'YEAGER F SCOTT'
p1829
(dp1830
g3
g7
sS'exercised_stock_options_fraction'
p1831
F0.6990930736662875
sg6
g7
sg8
g5
sS'restricted_stock_fraction'
p1832
F0.30090692633371247
sg10
I53947
sS'bonus_fraction'
p1833
g5
sS'loan_advances_fraction'
p1834
g5
sS'other_fraction'
p1835
F0.4106300305301138
sg14
I01
sS'salary_fraction'
p1836
F0.4396419650291424
sg16
g7
sg17
S'scott.yeager@enron.com'
p1837
sg19
g7
sS'director_fees_fraction'
p1838
g5
sg21
g7
sg22
g7
sg23
g7
sg24
g7
sg25
I147950
sg26
g7
sS'deferral_payments_fraction'
p1839
g5
sS'deferred_income_fraction'
p1840
g5
sg29
g7
sg30
g5
sg31
I11884758
sg32
g7
sg33
g7
sg34
I3576206
sg35
I158403
sS'restricted_stock_deferred_fraction'
p1841
g5
sg37
I360300
sS'expenses_fraction'
p1842
F0.14972800444074383
sg39
I8308552
sS'long_term_incentive_fraction'
p1843
g5
ssS'HIRKO JOSEPH'
p1844
(dp1845
g3
g7
sS'exercised_stock_options_fraction'
p1846
F1.0
sg6
I10259
sg8
g5
sS'restricted_stock_fraction'
p1847
g5
sg10
I77978
sS'bonus_fraction'
p1848
g5
sS'loan_advances_fraction'
p1849
g5
sS'other_fraction'
p1850
F0.03135257374331727
sg14
I01
sS'salary_fraction'
p1851
g5
sg16
g7
sg17
S'joe.hirko@enron.com'
p1852
sg19
g7
sS'director_fees_fraction'
p1853
g5
sg21
g7
sg22
g7
sg23
g7
sg24
g7
sg25
I2856
sg26
g7
sS'deferral_payments_fraction'
p1854
F0.1126211673783935
sS'deferred_income_fraction'
p1855
g5
sg29
g7
sg30
g5
sg31
I30766064
sg32
g7
sg33
g7
sg34
g7
sg35
g7
sS'restricted_stock_deferred_fraction'
p1856
g5
sg37
I91093
sS'expenses_fraction'
p1857
F0.8560262588782892
sg39
I30766064
sS'long_term_incentive_fraction'
p1858
g5
ssS'DIETRICH JANET R'
p1859
(dp1860
g3
I2572
sS'exercised_stock_options_fraction'
p1861
F0.8310706149364614
sg6
g7
sg8
F0.2222222222222222
sS'restricted_stock_fraction'
p1862
F0.16892938506353858
sg10
I3475
sS'bonus_fraction'
p1863
F0.4253919277627788
sS'loan_advances_fraction'
p1864
g5
sS'other_fraction'
p1865
F0.00033535063638632395
sg14
I00
sS'salary_fraction'
p1866
F0.1773175352224516
sg16
g7
sg17
S'janet.dietrich@enron.com'
p1867
sg19
I556416
sS'director_fees_fraction'
p1868
g5
sg21
g7
sg22
I1902
sg23
g7
sg24
I63
sg25
I473
sg26
g7
sS'deferral_payments_fraction'
p1869
g5
sS'deferred_income_fraction'
p1870
g5
sg29
I600000
sg30
F0.11858475894245724
sg31
I1865087
sg32
I305
sg33
I14
sg34
I315068
sg35
I250100
sS'restricted_stock_deferred_fraction'
p1871
g5
sg37
I1410464
sS'expenses_fraction'
p1872
F0.0024637282482927606
sg39
I1550019
sS'long_term_incentive_fraction'
p1873
F0.3944914581300905
ssS'DERRICK JR. JAMES V'
p1874
(dp1875
g3
I2181
sS'exercised_stock_options_fraction'
p1876
F1.0
sg6
g7
sg8
F0.022002200220022004
sS'restricted_stock_fraction'
p1877
F0.20237744642638578
sg10
I51124
sS'bonus_fraction'
p1878
F1.4519556935720106
sS'loan_advances_fraction'
p1879
g5
sS'other_fraction'
p1880
F0.01357941562413223
sg14
I00
sS'salary_fraction'
p1881
F0.8936333557781484
sg16
I-1284000
sg17
S'james.derrick@enron.com'
p1882
sg19
I484000
sS'director_fees_fraction'
p1883
g5
sg21
I-1787380
sg22
I1401
sg23
g7
sg24
I909
sg25
I7482
sg26
g7
sS'deferral_payments_fraction'
p1884
g5
sS'deferred_income_fraction'
p1885
F-2.330388888183077
sg29
I800000
sg30
F0.029344337459880788
sg31
I8831913
sg32
I64
sg33
I20
sg34
I1787380
sg35
I492375
sS'restricted_stock_deferred_fraction'
p1886
F-0.20237744642638578
sg37
I550981
sS'expenses_fraction'
p1887
F0.09278722859771935
sg39
I8831913
sS'long_term_incentive_fraction'
p1888
F0.8784331946110664
ssS'FREVERT MARK A'
p1889
(dp1890
g3
I3275
sS'exercised_stock_options_fraction'
p1891
F0.713540281428528
sg6
I6426990
sg8
F0.2857142857142857
sS'restricted_stock_fraction'
p1892
F0.28645971857147207
sg10
I86987
sS'bonus_fraction'
p1893
F0.1159250266482655
sS'loan_advances_fraction'
p1894
F0.1159250266482655
sS'other_fraction'
p1895
F0.4305235811791082
sg14
I00
sS'salary_fraction'
p1896
F0.06149428518599881
sg16
I-3367011
sg17
S'mark.frevert@enron.com'
p1897
sg19
I1617011
sS'director_fees_fraction'
p1898
g5
sg21
g7
sg22
I2979
sg23
I2000000
sg24
I21
sg25
I7427621
sg26
g7
sS'deferral_payments_fraction'
p1899
F0.37252449350906797
sS'deferred_income_fraction'
p1900
F-0.19516041995000152
sg29
I2000000
sg30
F0.07389312977099237
sg31
I14622185
sg32
I242
sg33
I6
sg34
I4188667
sg35
I1060932
sS'restricted_stock_deferred_fraction'
p1901
g5
sg37
I17252530
sS'expenses_fraction'
p1902
F0.005041985146526336
sg39
I10433518
sS'long_term_incentive_fraction'
p1903
F0.09372602163276922
ssS'PAI LOU L'
p1904
(dp1905
g3
g7
sS'exercised_stock_options_fraction'
p1906
F0.6450672665508715
sg6
g7
sg8
g5
sS'restricted_stock_fraction'
p1907
F0.35493273344912846
sg10
I32047
sS'bonus_fraction'
p1908
F0.3201656665224854
sS'loan_advances_fraction'
p1909
g5
sS'other_fraction'
p1910
F0.5857293197792266
sg14
I00
sS'salary_fraction'
p1911
F0.08384466458324195
sg16
g7
sg17
S'lou.pai@enron.com'
p1912
sg19
g7
sS'director_fees_fraction'
p1913
g5
sg21
g7
sg22
g7
sg23
g7
sg24
g7
sg25
I1829457
sg26
g7
sS'deferral_payments_fraction'
p1914
g5
sS'deferred_income_fraction'
p1915
g5
sg29
I1000000
sg30
g5
sg31
I23817930
sg32
g7
sg33
g7
sg34
I8453763
sg35
I261879
sS'restricted_stock_deferred_fraction'
p1916
g5
sg37
I3123383
sS'expenses_fraction'
p1917
F0.01026034911504609
sg39
I15364167
sS'long_term_incentive_fraction'
p1918
g5
ssS'BAY FRANKLIN R'
p1919
(dp1920
g3
g7
sS'exercised_stock_options_fraction'
p1921
g5
sg6
I260455
sg8
g5
sS'restricted_stock_fraction'
p1922
F2.3137080648744726
sg10
I129142
sS'bonus_fraction'
p1923
F0.48326921961686414
sS'loan_advances_fraction'
p1924
g5
sS'other_fraction'
p1925
F8.336394038390907e-05
sg14
I00
sS'salary_fraction'
p1926
F0.2895640428369836
sg16
I-201641
sg17
S'frank.bay@enron.com'
p1927
sg19
g7
sS'director_fees_fraction'
p1928
g5
sg21
I-82782
sg22
g7
sg23
g7
sg24
g7
sg25
I69
sg26
g7
sS'deferral_payments_fraction'
p1929
F0.3146747114882759
sS'deferred_income_fraction'
p1930
F-0.24361722178191025
sg29
I400000
sg30
g5
sg31
I63014
sg32
g7
sg33
g7
sg34
I145796
sg35
I239671
sS'restricted_stock_deferred_fraction'
p1931
F-1.3137080648744723
sg37
I827696
sS'expenses_fraction'
p1932
F0.15602588389940267
sg39
g7
sS'long_term_incentive_fraction'
p1933
g5
ssS'HAYSLETT RODERICK J'
p1934
(dp1935
g3
I2649
sS'exercised_stock_options_fraction'
p1936
g5
sg6
g7
sg8
F0.03581526861451461
sS'restricted_stock_fraction'
p1937
F1.0
sg10
g7
sS'bonus_fraction'
p1938
g5
sS'loan_advances_fraction'
p1939
g5
sS'other_fraction'
p1940
g5
sg14
I00
sS'salary_fraction'
p1941
g5
sg16
g7
sg17
S'rod.hayslett@enron.com'
p1942
sg19
g7
sS'director_fees_fraction'
p1943
g5
sg21
g7
sg22
I571
sg23
g7
sg24
I1061
sg25
g7
sg26
g7
sS'deferral_payments_fraction'
p1944
g5
sS'deferred_income_fraction'
p1945
g5
sg29
g7
sg30
F0.01321253303133258
sg31
I346663
sg32
I35
sg33
I38
sg34
I346663
sg35
g7
sS'restricted_stock_deferred_fraction'
p1946
g5
sg37
g7
sS'expenses_fraction'
p1947
g5
sg39
g7
sS'long_term_incentive_fraction'
p1948
g5
ssS'FUGH JOHN L'
p1949
(dp1950
g3
g7
sS'exercised_stock_options_fraction'
p1951
F1.0
sg6
I50591
sg8
g5
sS'restricted_stock_fraction'
p1952
g5
sg10
g7
sS'bonus_fraction'
p1953
g5
sS'loan_advances_fraction'
p1954
g5
sS'other_fraction'
p1955
g5
sg14
I00
sS'salary_fraction'
p1956
g5
sg16
g7
sg17
g7
sg19
g7
sS'director_fees_fraction'
p1957
g5
sg21
g7
sg22
g7
sg23
g7
sg24
g7
sg25
g7
sg26
g7
sS'deferral_payments_fraction'
p1958
F1.0
sS'deferred_income_fraction'
p1959
g5
sg29
g7
sg30
g5
sg31
I176378
sg32
g7
sg33
g7
sg34
g7
sg35
g7
sS'restricted_stock_deferred_fraction'
p1960
g5
sg37
I50591
sS'expenses_fraction'
p1961
g5
sg39
I176378
sS'long_term_incentive_fraction'
p1962
g5
ssS'FALLON JAMES B'
p1963
(dp1964
g3
I1755
sS'exercised_stock_options_fraction'
p1965
F0.40312870996771993
sg6
g7
sg8
F0.49333333333333335
sS'restricted_stock_fraction'
p1966
F0.5968712900322801
sg10
I95924
sS'bonus_fraction'
p1967
F0.6800241544579664
sS'loan_advances_fraction'
p1968
g5
sS'other_fraction'
p1969
F0.10920671102237552
sg14
I00
sS'salary_fraction'
p1970
F0.08285087886321722
sg16
g7
sg17
S'jim.fallon@enron.com'
p1971
sg19
I374347
sS'director_fees_fraction'
p1972
g5
sg21
g7
sg22
I1604
sg23
g7
sg24
I75
sg25
I401481
sg26
g7
sS'deferral_payments_fraction'
p1973
g5
sS'deferred_income_fraction'
p1974
g5
sg29
I2500000
sg30
F0.023931623931623933
sg31
I2332399
sg32
I42
sg33
I37
sg34
I1392142
sg35
I304588
sS'restricted_stock_deferred_fraction'
p1975
g5
sg37
I3676340
sS'expenses_fraction'
p1976
F0.026092254796890386
sg39
I940257
sS'long_term_incentive_fraction'
p1977
F0.10182600085955053
ssS'KOENIG MARK E'
p1978
(dp1979
g3
I2374
sS'exercised_stock_options_fraction'
p1980
F0.3498529990026327
sg6
g7
sg8
F0.2459016393442623
sS'restricted_stock_fraction'
p1981
F0.6501470009973672
sg10
I127017
sS'bonus_fraction'
p1982
F0.44096682606567505
sS'loan_advances_fraction'
p1983
g5
sS'other_fraction'
p1984
F0.0947814095945562
sg14
I01
sS'salary_fraction'
p1985
F0.19525129124535962
sg16
g7
sg17
S'mark.koenig@enron.com'
p1986
sg19
I300000
sS'director_fees_fraction'
p1987
g5
sg21
g7
sg22
I2271
sg23
g7
sg24
I61
sg25
I150458
sg26
g7
sS'deferral_payments_fraction'
p1988
g5
sS'deferred_income_fraction'
p1989
g5
sg29
I700000
sg30
F0.02232518955349621
sg31
I1920055
sg32
I53
sg33
I15
sg34
I1248318
sg35
I309946
sS'restricted_stock_deferred_fraction'
p1990
g5
sg37
I1587421
sS'expenses_fraction'
p1991
F0.08001469049483408
sg39
I671737
sS'long_term_incentive_fraction'
p1992
F0.18898578259957505
ssS'SAVAGE FRANK'
p1993
(dp1994
g3
g7
sS'exercised_stock_options_fraction'
p1995
g5
sg6
g7
sg8
g5
sS'restricted_stock_fraction'
p1996
g5
sg10
g7
sS'bonus_fraction'
p1997
g5
sS'loan_advances_fraction'
p1998
g5
sS'other_fraction'
p1999
g5
sg14
I00
sS'salary_fraction'
p2000
g5
sg16
I-121284
sg17
g7
sg19
g7
sS'director_fees_fraction'
p2001
F33.3424
sg21
g7
sg22
g7
sg23
g7
sg24
g7
sg25
g7
sg26
I125034
sS'deferral_payments_fraction'
p2002
g5
sS'deferred_income_fraction'
p2003
F-32.3424
sg29
g7
sg30
g5
sg31
g7
sg32
g7
sg33
g7
sg34
g7
sg35
g7
sS'restricted_stock_deferred_fraction'
p2004
g5
sg37
I3750
sS'expenses_fraction'
p2005
g5
sg39
g7
sS'long_term_incentive_fraction'
p2006
g5
ssS'IZZO LAWRENCE L'
p2007
(dp2008
g3
I496
sS'exercised_stock_options_fraction'
p2009
F0.3720239588452194
sg6
g7
sg8
F0.2631578947368421
sS'restricted_stock_fraction'
p2010
F0.6279760411547806
sg10
I28093
sS'bonus_fraction'
p2011
g5
sS'loan_advances_fraction'
p2012
g5
sS'other_fraction'
p2013
F0.784871761712996
sg14
I00
sS'salary_fraction'
p2014
F0.043076466107225916
sg16
g7
sg17
S'larry.izzo@enron.com'
p2015
sg19
I312500
sS'director_fees_fraction'
p2016
g5
sg21
g7
sg22
I437
sg23
g7
sg24
I19
sg25
I1553729
sg26
g7
sS'deferral_payments_fraction'
p2017
g5
sS'deferred_income_fraction'
p2018
g5
sg29
g7
sg30
F0.056451612903225805
sg31
I5819980
sg32
I28
sg33
I5
sg34
I3654808
sg35
I85274
sS'restricted_stock_deferred_fraction'
p2019
g5
sg37
I1979596
sS'expenses_fraction'
p2020
F0.014191279432773152
sg39
I2165172
sS'long_term_incentive_fraction'
p2021
F0.15786049274700495
ssS'TILNEY ELIZABETH A'
p2022
(dp2023
g3
I460
sS'exercised_stock_options_fraction'
p2024
F0.5061889897794771
sg6
g7
sg8
F0.5789473684210527
sS'restricted_stock_fraction'
p2025
F0.4938110102205229
sg10
g7
sS'bonus_fraction'
p2026
F0.7511398547295521
sS'loan_advances_fraction'
p2027
g5
sS'other_fraction'
p2028
F0.3807152353696735
sg14
I00
sS'salary_fraction'
p2029
F0.6192847646303266
sg16
I-575000
sg17
S'elizabeth.tilney@enron.com'
p2030
sg19
I275000
sS'director_fees_fraction'
p2031
g5
sg21
g7
sg22
I379
sg23
g7
sg24
I19
sg25
I152055
sg26
g7
sS'deferral_payments_fraction'
p2032
g5
sS'deferred_income_fraction'
p2033
F-1.4396847215649748
sg29
I300000
sg30
F0.021739130434782608
sg31
I1168042
sg32
I10
sg33
I11
sg34
I576792
sg35
I247338
sS'restricted_stock_deferred_fraction'
p2034
g5
sg37
I399393
sS'expenses_fraction'
p2035
g5
sg39
I591250
sS'long_term_incentive_fraction'
p2036
F0.6885448668354227
ssS'MARTIN AMANDA K'
p2037
(dp2038
g3
I1522
sS'exercised_stock_options_fraction'
p2039
F1.0
sg6
I85430
sg8
F0.0
sS'restricted_stock_fraction'
p2040
g5
sg10
I8211
sS'bonus_fraction'
p2041
g5
sS'loan_advances_fraction'
p2042
g5
sS'other_fraction'
p2043
F0.3352502243364352
sg14
I00
sS'salary_fraction'
p2044
F0.04157087366076144
sg16
g7
sg17
S'a..martin@enron.com'
p2045
sg19
I5145434
sS'director_fees_fraction'
p2046
g5
sg21
g7
sg22
I477
sg23
g7
sg24
I230
sg25
I2818454
sg26
g7
sS'deferral_payments_fraction'
p2047
F0.010161750614010964
sS'deferred_income_fraction'
p2048
g5
sg29
g7
sg30
F0.005256241787122208
sg31
I2070306
sg32
I8
sg33
I0
sg34
g7
sg35
I349487
sS'restricted_stock_deferred_fraction'
p2049
g5
sg37
I8407016
sS'expenses_fraction'
p2050
F0.0009766842361189749
sg39
I2070306
sS'long_term_incentive_fraction'
p2051
F0.6120404671526735
ssS'BUY RICHARD B'
p2052
(dp2053
g3
I3523
sS'exercised_stock_options_fraction'
p2054
F0.7382305550636237
sg6
I649584
sg8
F0.06742640075973409
sS'restricted_stock_fraction'
p2055
F0.26176944493637627
sg10
g7
sS'bonus_fraction'
p2056
F0.38205171961479
sS'loan_advances_fraction'
p2057
g5
sS'other_fraction'
p2058
F0.17004357936615072
sg14
I00
sS'salary_fraction'
p2059
F0.14031740856865596
sg16
I-694862
sg17
S'rick.buy@enron.com'
p2060
sg19
I769862
sS'director_fees_fraction'
p2061
g5
sg21
g7
sg22
I2333
sg23
g7
sg24
I1053
sg25
I400572
sg26
g7
sS'deferral_payments_fraction'
p2062
F0.27574964914917083
sS'deferred_income_fraction'
p2063
F-0.29497024666108024
sg29
I900000
sg30
F0.04428044280442804
sg31
I3444470
sg32
I156
sg33
I71
sg34
I901657
sg35
I330546
sS'restricted_stock_deferred_fraction'
p2064
g5
sg37
I2355702
sS'expenses_fraction'
p2065
g5
sg39
I2542813
sS'long_term_incentive_fraction'
p2066
F0.32680788996231275
ssS'GRAMM WENDY L'
p2067
(dp2068
g3
g7
sS'exercised_stock_options_fraction'
p2069
g5
sg6
g7
sg8
g5
sS'restricted_stock_fraction'
p2070
g5
sg10
g7
sS'bonus_fraction'
p2071
g5
sS'loan_advances_fraction'
p2072
g5
sS'other_fraction'
p2073
g5
sg14
I00
sS'salary_fraction'
p2074
g5
sg16
g7
sg17
g7
sg19
g7
sS'director_fees_fraction'
p2075
F1.0
sg21
g7
sg22
g7
sg23
g7
sg24
g7
sg25
g7
sg26
I119292
sS'deferral_payments_fraction'
p2076
g5
sS'deferred_income_fraction'
p2077
g5
sg29
g7
sg30
g5
sg31
g7
sg32
g7
sg33
g7
sg34
g7
sg35
g7
sS'restricted_stock_deferred_fraction'
p2078
g5
sg37
I119292
sS'expenses_fraction'
p2079
g5
sg39
g7
sS'long_term_incentive_fraction'
p2080
g5
ssS'CAUSEY RICHARD A'
p2081
(dp2082
g3
I1892
sS'exercised_stock_options_fraction'
p2083
g5
sg6
g7
sg8
F0.24489795918367346
sS'restricted_stock_fraction'
p2084
F1.0
sg10
I30674
sS'bonus_fraction'
p2085
F0.5351147660638778
sS'loan_advances_fraction'
p2086
g5
sS'other_fraction'
p2087
F0.16475916089723763
sg14
I01
sS'salary_fraction'
p2088
F0.22217376460729532
sg16
I-235000
sg17
S'richard.causey@enron.com'
p2089
sg19
I350000
sS'director_fees_fraction'
p2090
g5
sg21
g7
sg22
I1585
sg23
g7
sg24
I49
sg25
I307895
sg26
g7
sS'deferral_payments_fraction'
p2091
g5
sS'deferred_income_fraction'
p2092
F-0.12575197002501126
sg29
I1000000
sg30
F0.0306553911205074
sg31
I2502063
sg32
I58
sg33
I12
sg34
I2502063
sg35
I415189
sS'restricted_stock_deferred_fraction'
p2093
g5
sg37
I1868758
sS'expenses_fraction'
p2094
F0.016414110334243386
sg39
g7
sS'long_term_incentive_fraction'
p2095
F0.18729016812235721
ssS'TAYLOR MITCHELL S'
p2096
(dp2097
g3
I533
sS'exercised_stock_options_fraction'
p2098
F0.849455067064561
sg6
I227449
sg8
F0.0
sS'restricted_stock_fraction'
p2099
F0.15054493293543902
sg10
g7
sS'bonus_fraction'
p2100
F0.5491171568910085
sS'loan_advances_fraction'
p2101
g5
sS'other_fraction'
p2102
g5
sg14
I00
sS'salary_fraction'
p2103
F0.24272259607948654
sg16
g7
sg17
S'mitchell.taylor@enron.com'
p2104
sg19
g7
sS'director_fees_fraction'
p2105
g5
sg21
g7
sg22
I300
sg23
g7
sg24
I29
sg25
g7
sg26
g7
sS'deferral_payments_fraction'
p2106
F0.20816024702950497
sS'deferred_income_fraction'
p2107
g5
sg29
I600000
sg30
F0.0
sg31
I3745048
sg32
I0
sg33
I0
sg34
I563798
sg35
I265214
sS'restricted_stock_deferred_fraction'
p2108
g5
sg37
I1092663
sS'expenses_fraction'
p2109
g5
sg39
I3181250
sS'long_term_incentive_fraction'
p2110
g5
ssS'DONAHUE JR JEFFREY M'
p2111
(dp2112
g3
I865
sS'exercised_stock_options_fraction'
p2113
F0.7085370050361336
sg6
g7
sg8
F0.5
sS'restricted_stock_fraction'
p2114
F0.2914629949638664
sg10
I96268
sS'bonus_fraction'
p2115
F0.9134922809902256
sS'loan_advances_fraction'
p2116
g5
sS'other_fraction'
p2117
F0.0010174020279528637
sg14
I00
sS'salary_fraction'
p2118
F0.3181248287201973
sg16
I-300000
sg17
S'jeff.donahue@enron.com'
p2119
sg19
g7
sS'director_fees_fraction'
p2120
g5
sg21
g7
sg22
I772
sg23
g7
sg24
I22
sg25
I891
sg26
g7
sS'deferral_payments_fraction'
p2121
g5
sS'deferred_income_fraction'
p2122
F-0.3425596053713346
sg29
I800000
sg30
F0.21734104046242775
sg31
I1080988
sg32
I188
sg33
I11
sg34
I315068
sg35
I278601
sS'restricted_stock_deferred_fraction'
p2123
g5
sg37
I875760
sS'expenses_fraction'
p2124
F0.1099250936329588
sg39
I765920
sS'long_term_incentive_fraction'
p2125
g5
ssS'GLISAN JR BEN F'
p2126
(dp2127
g3
I873
sS'exercised_stock_options_fraction'
p2128
F0.49416219465516487
sg6
g7
sg8
F0.375
sS'restricted_stock_fraction'
p2129
F0.5058378053448351
sg10
I125978
sS'bonus_fraction'
p2130
F0.4715928204709012
sS'loan_advances_fraction'
p2131
g5
sS'other_fraction'
p2132
F0.1574396911381421
sg14
I01
sS'salary_fraction'
p2133
F0.21612705968164342
sg16
g7
sg17
S'ben.glisan@enron.com'
p2134
sg19
I71023
sS'director_fees_fraction'
p2135
g5
sg21
g7
sg22
I874
sg23
g7
sg24
I16
sg25
I200308
sg26
g7
sS'deferral_payments_fraction'
p2136
g5
sS'deferred_income_fraction'
p2137
g5
sg29
I600000
sg30
F0.05956471935853379
sg31
I778546
sg32
I52
sg33
I6
sg34
I393818
sg35
I274975
sS'restricted_stock_deferred_fraction'
p2138
g5
sg37
I1272284
sS'expenses_fraction'
p2139
F0.09901720056213864
sg39
I384728
sS'long_term_incentive_fraction'
p2140
F0.055823228147174685
ss.